

Microchip MPLAB XC8 Assembler V2.41 build 20230208172133 
                                                                                               Mon Jul 17 16:02:01 2023

Microchip MPLAB XC8 C Compiler v2.41 (Free license) build 20230208172133 Og1 
     1                           	processor	16F18877
     2                           	pagewidth 120
     3                           	opt	flic
     4                           	psect	idataBANK1,global,class=CODE,delta=2,noexec
     5                           	psect	idataBANK2,global,class=CODE,delta=2,noexec
     6                           	psect	cinit,global,class=CODE,merge=1,delta=2
     7                           	psect	dataBANK1,global,class=BANK1,space=1,delta=1,noexec
     8                           	psect	dataBANK2,global,class=BANK2,space=1,delta=1,noexec
     9                           	psect	inittext,global,class=CODE,delta=2
    10                           	psect	cstackBANK1,global,class=BANK1,space=1,delta=1,noexec
    11                           	psect	cstackCOMMON,global,class=COMMON,space=1,delta=1,noexec
    12                           	psect	cstackBANK0,global,class=BANK0,space=1,delta=1,noexec
    13                           	psect	maintext,global,class=CODE,merge=1,split=1,delta=2
    14                           	psect	text1,local,class=CODE,merge=1,delta=2
    15                           	psect	text2,local,class=CODE,merge=1,delta=2
    16                           	psect	text3,local,class=CODE,merge=1,delta=2
    17                           	psect	text4,local,class=CODE,merge=1,delta=2
    18                           	psect	text5,local,class=CODE,merge=1,delta=2
    19                           	psect	text6,local,class=CODE,merge=1,delta=2
    20                           	psect	text7,local,class=CODE,merge=1,delta=2
    21                           	psect	text8,local,class=CODE,merge=1,delta=2
    22                           	psect	text9,local,class=CODE,merge=1,delta=2
    23                           	psect	text10,local,class=CODE,merge=1,delta=2
    24                           	psect	text11,local,class=CODE,merge=1,delta=2
    25                           	psect	text12,local,class=CODE,merge=1,delta=2
    26                           	psect	text13,local,class=CODE,merge=1,delta=2
    27                           	psect	text14,local,class=CODE,merge=1,delta=2,group=1
    28                           	psect	text15,local,class=CODE,merge=1,delta=2,group=1
    29                           	psect	text16,local,class=CODE,merge=1,delta=2
    30                           	psect	text17,local,class=CODE,merge=1,delta=2
    31                           	psect	text18,local,class=CODE,merge=1,delta=2,group=1
    32                           	psect	text19,local,class=CODE,merge=1,delta=2,group=1
    33                           	psect	config,global,abs,ovrld,class=CONFIG,space=4,delta=2,noexec
    34                           	dabs	1,0x7E,2
    35  0000                     
    36                           ; Generated 22/03/2023 GMT
    37                           ; 
    38                           ; Copyright Â© 2023, Microchip Technology Inc. and its subsidiaries ("Microchip")
    39                           ; All rights reserved.
    40                           ; 
    41                           ; This software is developed by Microchip Technology Inc. and its subsidiaries ("Microch
      +                          ip").
    42                           ; 
    43                           ; Redistribution and use in source and binary forms, with or without modification, are
    44                           ; permitted provided that the following conditions are met:
    45                           ; 
    46                           ;     1. Redistributions of source code must retain the above copyright notice, this lis
      +                          t of
    47                           ;        conditions and the following disclaimer.
    48                           ; 
    49                           ;     2. Redistributions in binary form must reproduce the above copyright notice, this 
      +                          list
    50                           ;        of conditions and the following disclaimer in the documentation and/or other
    51                           ;        materials provided with the distribution. Publication is not required when
    52                           ;        this file is used in an embedded application.
    53                           ; 
    54                           ;     3. Microchip's name may not be used to endorse or promote products derived from th
      +                          is
    55                           ;        software without specific prior written permission.
    56                           ; 
    57                           ; THIS SOFTWARE IS PROVIDED BY MICROCHIP "AS IS" AND ANY EXPRESS OR IMPLIED WARRANTIES,
    58                           ; INCLUDING, BUT NOT LIMITED TO, THE IMPLIED WARRANTIES OF MERCHANTABILITY AND FITNESS F
      +                          OR
    59                           ; PURPOSE ARE DISCLAIMED.  IN NO EVENT SHALL MICROCHIP BE LIABLE FOR ANY DIRECT, INDIREC
      +                          T,
    60                           ; INCIDENTAL, SPECIAL, EXEMPLARY, OR CONSEQUENTIAL DAMAGES (INCLUDING BUT NOT LIMITED TO
    61                           ; PROCUREMENT OF SUBSTITUTE GOODS OR SERVICES; LOSS OF USE, DATA OR PROFITS; OR BUSINESS
    62                           ; INTERRUPTION) HOWSOEVER CAUSED AND ON ANY THEORY OF LIABILITY, WHETHER IN CONTRACT, ST
      +                          RICT
    63                           ; LIABILITY, OR TORT (INCLUDING NEGLIGENCE OR OTHERWISE) ARISING IN ANY WAY OUT OF THE U
      +                          SE OF
    64                           ; THIS SOFTWARE, EVEN IF ADVISED OF THE POSSIBILITY OF SUCH DAMAGE.
    65                           ; 
    66                           ; 
    67                           ; Code-generator required, PIC16F18877 Definitions
    68                           ; 
    69                           ; SFR Addresses
    70  0000                     	;# 
    71  0001                     	;# 
    72  0002                     	;# 
    73  0003                     	;# 
    74  0004                     	;# 
    75  0005                     	;# 
    76  0006                     	;# 
    77  0007                     	;# 
    78  0008                     	;# 
    79  0009                     	;# 
    80  000A                     	;# 
    81  000B                     	;# 
    82  000C                     	;# 
    83  000D                     	;# 
    84  000E                     	;# 
    85  000F                     	;# 
    86  0010                     	;# 
    87  0011                     	;# 
    88  0012                     	;# 
    89  0013                     	;# 
    90  0014                     	;# 
    91  0015                     	;# 
    92  0016                     	;# 
    93  0017                     	;# 
    94  0018                     	;# 
    95  0019                     	;# 
    96  001A                     	;# 
    97  001C                     	;# 
    98  001C                     	;# 
    99  001D                     	;# 
   100  001D                     	;# 
   101  001E                     	;# 
   102  001F                     	;# 
   103  008C                     	;# 
   104  008C                     	;# 
   105  008D                     	;# 
   106  008E                     	;# 
   107  008E                     	;# 
   108  008F                     	;# 
   109  0090                     	;# 
   110  0090                     	;# 
   111  0091                     	;# 
   112  0093                     	;# 
   113  0094                     	;# 
   114  0095                     	;# 
   115  0096                     	;# 
   116  0097                     	;# 
   117  0098                     	;# 
   118  0099                     	;# 
   119  009A                     	;# 
   120  009B                     	;# 
   121  009C                     	;# 
   122  009D                     	;# 
   123  009E                     	;# 
   124  010C                     	;# 
   125  010D                     	;# 
   126  010E                     	;# 
   127  010E                     	;# 
   128  010F                     	;# 
   129  0110                     	;# 
   130  0110                     	;# 
   131  0111                     	;# 
   132  0112                     	;# 
   133  0112                     	;# 
   134  0113                     	;# 
   135  0114                     	;# 
   136  0114                     	;# 
   137  0115                     	;# 
   138  0116                     	;# 
   139  0116                     	;# 
   140  0117                     	;# 
   141  0119                     	;# 
   142  0119                     	;# 
   143  0119                     	;# 
   144  011A                     	;# 
   145  011A                     	;# 
   146  011A                     	;# 
   147  011B                     	;# 
   148  011B                     	;# 
   149  011B                     	;# 
   150  011B                     	;# 
   151  011B                     	;# 
   152  011C                     	;# 
   153  011C                     	;# 
   154  011C                     	;# 
   155  011D                     	;# 
   156  011D                     	;# 
   157  011D                     	;# 
   158  011E                     	;# 
   159  011E                     	;# 
   160  011E                     	;# 
   161  011F                     	;# 
   162  011F                     	;# 
   163  011F                     	;# 
   164  011F                     	;# 
   165  011F                     	;# 
   166  018C                     	;# 
   167  018D                     	;# 
   168  018E                     	;# 
   169  018F                     	;# 
   170  0190                     	;# 
   171  0191                     	;# 
   172  0192                     	;# 
   173  0196                     	;# 
   174  0197                     	;# 
   175  0198                     	;# 
   176  0199                     	;# 
   177  019A                     	;# 
   178  019B                     	;# 
   179  019C                     	;# 
   180  020C                     	;# 
   181  020C                     	;# 
   182  020D                     	;# 
   183  020E                     	;# 
   184  020F                     	;# 
   185  020F                     	;# 
   186  0210                     	;# 
   187  0210                     	;# 
   188  0211                     	;# 
   189  0211                     	;# 
   190  0212                     	;# 
   191  0212                     	;# 
   192  0213                     	;# 
   193  0214                     	;# 
   194  0215                     	;# 
   195  0215                     	;# 
   196  0216                     	;# 
   197  0216                     	;# 
   198  0217                     	;# 
   199  0217                     	;# 
   200  0218                     	;# 
   201  0218                     	;# 
   202  0219                     	;# 
   203  021A                     	;# 
   204  021B                     	;# 
   205  021B                     	;# 
   206  021C                     	;# 
   207  021C                     	;# 
   208  021D                     	;# 
   209  021D                     	;# 
   210  021E                     	;# 
   211  021F                     	;# 
   212  028C                     	;# 
   213  028C                     	;# 
   214  028D                     	;# 
   215  028D                     	;# 
   216  028E                     	;# 
   217  028F                     	;# 
   218  0290                     	;# 
   219  0290                     	;# 
   220  0291                     	;# 
   221  0292                     	;# 
   222  0292                     	;# 
   223  0293                     	;# 
   224  0293                     	;# 
   225  0294                     	;# 
   226  0295                     	;# 
   227  0296                     	;# 
   228  0296                     	;# 
   229  0297                     	;# 
   230  0298                     	;# 
   231  0298                     	;# 
   232  0299                     	;# 
   233  0299                     	;# 
   234  029A                     	;# 
   235  029B                     	;# 
   236  029C                     	;# 
   237  029C                     	;# 
   238  029D                     	;# 
   239  030C                     	;# 
   240  030C                     	;# 
   241  030D                     	;# 
   242  030E                     	;# 
   243  030F                     	;# 
   244  0310                     	;# 
   245  0310                     	;# 
   246  0311                     	;# 
   247  0312                     	;# 
   248  0313                     	;# 
   249  0314                     	;# 
   250  0314                     	;# 
   251  0315                     	;# 
   252  0316                     	;# 
   253  0317                     	;# 
   254  0318                     	;# 
   255  0318                     	;# 
   256  0319                     	;# 
   257  031A                     	;# 
   258  031B                     	;# 
   259  031C                     	;# 
   260  031C                     	;# 
   261  031D                     	;# 
   262  031E                     	;# 
   263  031F                     	;# 
   264  038C                     	;# 
   265  038C                     	;# 
   266  038D                     	;# 
   267  038E                     	;# 
   268  0390                     	;# 
   269  0390                     	;# 
   270  0391                     	;# 
   271  0392                     	;# 
   272  040C                     	;# 
   273  040D                     	;# 
   274  040E                     	;# 
   275  040F                     	;# 
   276  0410                     	;# 
   277  0411                     	;# 
   278  0416                     	;# 
   279  0416                     	;# 
   280  0417                     	;# 
   281  0418                     	;# 
   282  0418                     	;# 
   283  0419                     	;# 
   284  041A                     	;# 
   285  041A                     	;# 
   286  041B                     	;# 
   287  041C                     	;# 
   288  041C                     	;# 
   289  041D                     	;# 
   290  041E                     	;# 
   291  041F                     	;# 
   292  048C                     	;# 
   293  048C                     	;# 
   294  048D                     	;# 
   295  048E                     	;# 
   296  048F                     	;# 
   297  048F                     	;# 
   298  0490                     	;# 
   299  0491                     	;# 
   300  0492                     	;# 
   301  0492                     	;# 
   302  0493                     	;# 
   303  0494                     	;# 
   304  0495                     	;# 
   305  0495                     	;# 
   306  0496                     	;# 
   307  0497                     	;# 
   308  0498                     	;# 
   309  0499                     	;# 
   310  049A                     	;# 
   311  049B                     	;# 
   312  049C                     	;# 
   313  049D                     	;# 
   314  050C                     	;# 
   315  050C                     	;# 
   316  050D                     	;# 
   317  050E                     	;# 
   318  050F                     	;# 
   319  050F                     	;# 
   320  0510                     	;# 
   321  0511                     	;# 
   322  0512                     	;# 
   323  0512                     	;# 
   324  0513                     	;# 
   325  0514                     	;# 
   326  0515                     	;# 
   327  0515                     	;# 
   328  0516                     	;# 
   329  0517                     	;# 
   330  0518                     	;# 
   331  0519                     	;# 
   332  051A                     	;# 
   333  051B                     	;# 
   334  051C                     	;# 
   335  051D                     	;# 
   336  058C                     	;# 
   337  058C                     	;# 
   338  058D                     	;# 
   339  058E                     	;# 
   340  058F                     	;# 
   341  058F                     	;# 
   342  0590                     	;# 
   343  0591                     	;# 
   344  0592                     	;# 
   345  0593                     	;# 
   346  060C                     	;# 
   347  060D                     	;# 
   348  060E                     	;# 
   349  060F                     	;# 
   350  0610                     	;# 
   351  0611                     	;# 
   352  0612                     	;# 
   353  0613                     	;# 
   354  0614                     	;# 
   355  0616                     	;# 
   356  0617                     	;# 
   357  0618                     	;# 
   358  0619                     	;# 
   359  061A                     	;# 
   360  061B                     	;# 
   361  061C                     	;# 
   362  061D                     	;# 
   363  061E                     	;# 
   364  068C                     	;# 
   365  068D                     	;# 
   366  068E                     	;# 
   367  068F                     	;# 
   368  0690                     	;# 
   369  0691                     	;# 
   370  0692                     	;# 
   371  0693                     	;# 
   372  0694                     	;# 
   373  070C                     	;# 
   374  070D                     	;# 
   375  070E                     	;# 
   376  070F                     	;# 
   377  0710                     	;# 
   378  0711                     	;# 
   379  0712                     	;# 
   380  0713                     	;# 
   381  0714                     	;# 
   382  0716                     	;# 
   383  0717                     	;# 
   384  0718                     	;# 
   385  0719                     	;# 
   386  071A                     	;# 
   387  071B                     	;# 
   388  071C                     	;# 
   389  071D                     	;# 
   390  071E                     	;# 
   391  0796                     	;# 
   392  0797                     	;# 
   393  0798                     	;# 
   394  0799                     	;# 
   395  079A                     	;# 
   396  079B                     	;# 
   397  080C                     	;# 
   398  080D                     	;# 
   399  080E                     	;# 
   400  080F                     	;# 
   401  0810                     	;# 
   402  0811                     	;# 
   403  0812                     	;# 
   404  0813                     	;# 
   405  0814                     	;# 
   406  081A                     	;# 
   407  081B                     	;# 
   408  081C                     	;# 
   409  081D                     	;# 
   410  081E                     	;# 
   411  081F                     	;# 
   412  088C                     	;# 
   413  088D                     	;# 
   414  088E                     	;# 
   415  088F                     	;# 
   416  0890                     	;# 
   417  0891                     	;# 
   418  0892                     	;# 
   419  0893                     	;# 
   420  0895                     	;# 
   421  0896                     	;# 
   422  0897                     	;# 
   423  0898                     	;# 
   424  0899                     	;# 
   425  089A                     	;# 
   426  089B                     	;# 
   427  090C                     	;# 
   428  090E                     	;# 
   429  090F                     	;# 
   430  091F                     	;# 
   431  098F                     	;# 
   432  098F                     	;# 
   433  0990                     	;# 
   434  0991                     	;# 
   435  0992                     	;# 
   436  0993                     	;# 
   437  0994                     	;# 
   438  0995                     	;# 
   439  0996                     	;# 
   440  0997                     	;# 
   441  1E0F                     	;# 
   442  1E10                     	;# 
   443  1E11                     	;# 
   444  1E12                     	;# 
   445  1E13                     	;# 
   446  1E14                     	;# 
   447  1E15                     	;# 
   448  1E16                     	;# 
   449  1E17                     	;# 
   450  1E18                     	;# 
   451  1E19                     	;# 
   452  1E1A                     	;# 
   453  1E1B                     	;# 
   454  1E1C                     	;# 
   455  1E1D                     	;# 
   456  1E1E                     	;# 
   457  1E1F                     	;# 
   458  1E20                     	;# 
   459  1E21                     	;# 
   460  1E22                     	;# 
   461  1E23                     	;# 
   462  1E24                     	;# 
   463  1E25                     	;# 
   464  1E26                     	;# 
   465  1E27                     	;# 
   466  1E28                     	;# 
   467  1E29                     	;# 
   468  1E2A                     	;# 
   469  1E2B                     	;# 
   470  1E2C                     	;# 
   471  1E2D                     	;# 
   472  1E2E                     	;# 
   473  1E2F                     	;# 
   474  1E30                     	;# 
   475  1E31                     	;# 
   476  1E32                     	;# 
   477  1E33                     	;# 
   478  1E34                     	;# 
   479  1E35                     	;# 
   480  1E36                     	;# 
   481  1E37                     	;# 
   482  1E8F                     	;# 
   483  1E90                     	;# 
   484  1E91                     	;# 
   485  1E92                     	;# 
   486  1E93                     	;# 
   487  1E94                     	;# 
   488  1E95                     	;# 
   489  1E96                     	;# 
   490  1E97                     	;# 
   491  1E9C                     	;# 
   492  1E9D                     	;# 
   493  1E9E                     	;# 
   494  1EA1                     	;# 
   495  1EA2                     	;# 
   496  1EA3                     	;# 
   497  1EA4                     	;# 
   498  1EA5                     	;# 
   499  1EA9                     	;# 
   500  1EAA                     	;# 
   501  1EAB                     	;# 
   502  1EAC                     	;# 
   503  1EB1                     	;# 
   504  1EB2                     	;# 
   505  1EB3                     	;# 
   506  1EB8                     	;# 
   507  1EB9                     	;# 
   508  1EBA                     	;# 
   509  1EBB                     	;# 
   510  1EBC                     	;# 
   511  1EBD                     	;# 
   512  1EBE                     	;# 
   513  1EC3                     	;# 
   514  1EC5                     	;# 
   515  1EC6                     	;# 
   516  1EC7                     	;# 
   517  1EC8                     	;# 
   518  1EC9                     	;# 
   519  1ECA                     	;# 
   520  1ECB                     	;# 
   521  1ECC                     	;# 
   522  1F10                     	;# 
   523  1F11                     	;# 
   524  1F12                     	;# 
   525  1F13                     	;# 
   526  1F14                     	;# 
   527  1F15                     	;# 
   528  1F16                     	;# 
   529  1F17                     	;# 
   530  1F18                     	;# 
   531  1F19                     	;# 
   532  1F1A                     	;# 
   533  1F1B                     	;# 
   534  1F1C                     	;# 
   535  1F1D                     	;# 
   536  1F1E                     	;# 
   537  1F1F                     	;# 
   538  1F20                     	;# 
   539  1F21                     	;# 
   540  1F22                     	;# 
   541  1F23                     	;# 
   542  1F24                     	;# 
   543  1F25                     	;# 
   544  1F26                     	;# 
   545  1F27                     	;# 
   546  1F28                     	;# 
   547  1F29                     	;# 
   548  1F2A                     	;# 
   549  1F2B                     	;# 
   550  1F2C                     	;# 
   551  1F2D                     	;# 
   552  1F2E                     	;# 
   553  1F2F                     	;# 
   554  1F30                     	;# 
   555  1F31                     	;# 
   556  1F32                     	;# 
   557  1F38                     	;# 
   558  1F39                     	;# 
   559  1F3A                     	;# 
   560  1F3B                     	;# 
   561  1F3C                     	;# 
   562  1F3D                     	;# 
   563  1F3E                     	;# 
   564  1F3F                     	;# 
   565  1F40                     	;# 
   566  1F41                     	;# 
   567  1F43                     	;# 
   568  1F44                     	;# 
   569  1F45                     	;# 
   570  1F46                     	;# 
   571  1F47                     	;# 
   572  1F48                     	;# 
   573  1F49                     	;# 
   574  1F4A                     	;# 
   575  1F4B                     	;# 
   576  1F4C                     	;# 
   577  1F4E                     	;# 
   578  1F4F                     	;# 
   579  1F50                     	;# 
   580  1F51                     	;# 
   581  1F52                     	;# 
   582  1F53                     	;# 
   583  1F54                     	;# 
   584  1F55                     	;# 
   585  1F56                     	;# 
   586  1F57                     	;# 
   587  1F59                     	;# 
   588  1F5A                     	;# 
   589  1F5B                     	;# 
   590  1F5C                     	;# 
   591  1F5D                     	;# 
   592  1F61                     	;# 
   593  1F62                     	;# 
   594  1F64                     	;# 
   595  1F65                     	;# 
   596  1F66                     	;# 
   597  1F67                     	;# 
   598  1F68                     	;# 
   599  1F69                     	;# 
   600  1F6A                     	;# 
   601  1F6B                     	;# 
   602  1F6C                     	;# 
   603  1F6D                     	;# 
   604  1FE4                     	;# 
   605  1FE5                     	;# 
   606  1FE6                     	;# 
   607  1FE7                     	;# 
   608  1FE8                     	;# 
   609  1FE9                     	;# 
   610  1FEA                     	;# 
   611  1FEB                     	;# 
   612  1FED                     	;# 
   613  1FEE                     	;# 
   614  1FEF                     	;# 
   615  0000                     	;# 
   616  0001                     	;# 
   617  0002                     	;# 
   618  0003                     	;# 
   619  0004                     	;# 
   620  0005                     	;# 
   621  0006                     	;# 
   622  0007                     	;# 
   623  0008                     	;# 
   624  0009                     	;# 
   625  000A                     	;# 
   626  000B                     	;# 
   627  000C                     	;# 
   628  000D                     	;# 
   629  000E                     	;# 
   630  000F                     	;# 
   631  0010                     	;# 
   632  0011                     	;# 
   633  0012                     	;# 
   634  0013                     	;# 
   635  0014                     	;# 
   636  0015                     	;# 
   637  0016                     	;# 
   638  0017                     	;# 
   639  0018                     	;# 
   640  0019                     	;# 
   641  001A                     	;# 
   642  001C                     	;# 
   643  001C                     	;# 
   644  001D                     	;# 
   645  001D                     	;# 
   646  001E                     	;# 
   647  001F                     	;# 
   648  008C                     	;# 
   649  008C                     	;# 
   650  008D                     	;# 
   651  008E                     	;# 
   652  008E                     	;# 
   653  008F                     	;# 
   654  0090                     	;# 
   655  0090                     	;# 
   656  0091                     	;# 
   657  0093                     	;# 
   658  0094                     	;# 
   659  0095                     	;# 
   660  0096                     	;# 
   661  0097                     	;# 
   662  0098                     	;# 
   663  0099                     	;# 
   664  009A                     	;# 
   665  009B                     	;# 
   666  009C                     	;# 
   667  009D                     	;# 
   668  009E                     	;# 
   669  010C                     	;# 
   670  010D                     	;# 
   671  010E                     	;# 
   672  010E                     	;# 
   673  010F                     	;# 
   674  0110                     	;# 
   675  0110                     	;# 
   676  0111                     	;# 
   677  0112                     	;# 
   678  0112                     	;# 
   679  0113                     	;# 
   680  0114                     	;# 
   681  0114                     	;# 
   682  0115                     	;# 
   683  0116                     	;# 
   684  0116                     	;# 
   685  0117                     	;# 
   686  0119                     	;# 
   687  0119                     	;# 
   688  0119                     	;# 
   689  011A                     	;# 
   690  011A                     	;# 
   691  011A                     	;# 
   692  011B                     	;# 
   693  011B                     	;# 
   694  011B                     	;# 
   695  011B                     	;# 
   696  011B                     	;# 
   697  011C                     	;# 
   698  011C                     	;# 
   699  011C                     	;# 
   700  011D                     	;# 
   701  011D                     	;# 
   702  011D                     	;# 
   703  011E                     	;# 
   704  011E                     	;# 
   705  011E                     	;# 
   706  011F                     	;# 
   707  011F                     	;# 
   708  011F                     	;# 
   709  011F                     	;# 
   710  011F                     	;# 
   711  018C                     	;# 
   712  018D                     	;# 
   713  018E                     	;# 
   714  018F                     	;# 
   715  0190                     	;# 
   716  0191                     	;# 
   717  0192                     	;# 
   718  0196                     	;# 
   719  0197                     	;# 
   720  0198                     	;# 
   721  0199                     	;# 
   722  019A                     	;# 
   723  019B                     	;# 
   724  019C                     	;# 
   725  020C                     	;# 
   726  020C                     	;# 
   727  020D                     	;# 
   728  020E                     	;# 
   729  020F                     	;# 
   730  020F                     	;# 
   731  0210                     	;# 
   732  0210                     	;# 
   733  0211                     	;# 
   734  0211                     	;# 
   735  0212                     	;# 
   736  0212                     	;# 
   737  0213                     	;# 
   738  0214                     	;# 
   739  0215                     	;# 
   740  0215                     	;# 
   741  0216                     	;# 
   742  0216                     	;# 
   743  0217                     	;# 
   744  0217                     	;# 
   745  0218                     	;# 
   746  0218                     	;# 
   747  0219                     	;# 
   748  021A                     	;# 
   749  021B                     	;# 
   750  021B                     	;# 
   751  021C                     	;# 
   752  021C                     	;# 
   753  021D                     	;# 
   754  021D                     	;# 
   755  021E                     	;# 
   756  021F                     	;# 
   757  028C                     	;# 
   758  028C                     	;# 
   759  028D                     	;# 
   760  028D                     	;# 
   761  028E                     	;# 
   762  028F                     	;# 
   763  0290                     	;# 
   764  0290                     	;# 
   765  0291                     	;# 
   766  0292                     	;# 
   767  0292                     	;# 
   768  0293                     	;# 
   769  0293                     	;# 
   770  0294                     	;# 
   771  0295                     	;# 
   772  0296                     	;# 
   773  0296                     	;# 
   774  0297                     	;# 
   775  0298                     	;# 
   776  0298                     	;# 
   777  0299                     	;# 
   778  0299                     	;# 
   779  029A                     	;# 
   780  029B                     	;# 
   781  029C                     	;# 
   782  029C                     	;# 
   783  029D                     	;# 
   784  030C                     	;# 
   785  030C                     	;# 
   786  030D                     	;# 
   787  030E                     	;# 
   788  030F                     	;# 
   789  0310                     	;# 
   790  0310                     	;# 
   791  0311                     	;# 
   792  0312                     	;# 
   793  0313                     	;# 
   794  0314                     	;# 
   795  0314                     	;# 
   796  0315                     	;# 
   797  0316                     	;# 
   798  0317                     	;# 
   799  0318                     	;# 
   800  0318                     	;# 
   801  0319                     	;# 
   802  031A                     	;# 
   803  031B                     	;# 
   804  031C                     	;# 
   805  031C                     	;# 
   806  031D                     	;# 
   807  031E                     	;# 
   808  031F                     	;# 
   809  038C                     	;# 
   810  038C                     	;# 
   811  038D                     	;# 
   812  038E                     	;# 
   813  0390                     	;# 
   814  0390                     	;# 
   815  0391                     	;# 
   816  0392                     	;# 
   817  040C                     	;# 
   818  040D                     	;# 
   819  040E                     	;# 
   820  040F                     	;# 
   821  0410                     	;# 
   822  0411                     	;# 
   823  0416                     	;# 
   824  0416                     	;# 
   825  0417                     	;# 
   826  0418                     	;# 
   827  0418                     	;# 
   828  0419                     	;# 
   829  041A                     	;# 
   830  041A                     	;# 
   831  041B                     	;# 
   832  041C                     	;# 
   833  041C                     	;# 
   834  041D                     	;# 
   835  041E                     	;# 
   836  041F                     	;# 
   837  048C                     	;# 
   838  048C                     	;# 
   839  048D                     	;# 
   840  048E                     	;# 
   841  048F                     	;# 
   842  048F                     	;# 
   843  0490                     	;# 
   844  0491                     	;# 
   845  0492                     	;# 
   846  0492                     	;# 
   847  0493                     	;# 
   848  0494                     	;# 
   849  0495                     	;# 
   850  0495                     	;# 
   851  0496                     	;# 
   852  0497                     	;# 
   853  0498                     	;# 
   854  0499                     	;# 
   855  049A                     	;# 
   856  049B                     	;# 
   857  049C                     	;# 
   858  049D                     	;# 
   859  050C                     	;# 
   860  050C                     	;# 
   861  050D                     	;# 
   862  050E                     	;# 
   863  050F                     	;# 
   864  050F                     	;# 
   865  0510                     	;# 
   866  0511                     	;# 
   867  0512                     	;# 
   868  0512                     	;# 
   869  0513                     	;# 
   870  0514                     	;# 
   871  0515                     	;# 
   872  0515                     	;# 
   873  0516                     	;# 
   874  0517                     	;# 
   875  0518                     	;# 
   876  0519                     	;# 
   877  051A                     	;# 
   878  051B                     	;# 
   879  051C                     	;# 
   880  051D                     	;# 
   881  058C                     	;# 
   882  058C                     	;# 
   883  058D                     	;# 
   884  058E                     	;# 
   885  058F                     	;# 
   886  058F                     	;# 
   887  0590                     	;# 
   888  0591                     	;# 
   889  0592                     	;# 
   890  0593                     	;# 
   891  060C                     	;# 
   892  060D                     	;# 
   893  060E                     	;# 
   894  060F                     	;# 
   895  0610                     	;# 
   896  0611                     	;# 
   897  0612                     	;# 
   898  0613                     	;# 
   899  0614                     	;# 
   900  0616                     	;# 
   901  0617                     	;# 
   902  0618                     	;# 
   903  0619                     	;# 
   904  061A                     	;# 
   905  061B                     	;# 
   906  061C                     	;# 
   907  061D                     	;# 
   908  061E                     	;# 
   909  068C                     	;# 
   910  068D                     	;# 
   911  068E                     	;# 
   912  068F                     	;# 
   913  0690                     	;# 
   914  0691                     	;# 
   915  0692                     	;# 
   916  0693                     	;# 
   917  0694                     	;# 
   918  070C                     	;# 
   919  070D                     	;# 
   920  070E                     	;# 
   921  070F                     	;# 
   922  0710                     	;# 
   923  0711                     	;# 
   924  0712                     	;# 
   925  0713                     	;# 
   926  0714                     	;# 
   927  0716                     	;# 
   928  0717                     	;# 
   929  0718                     	;# 
   930  0719                     	;# 
   931  071A                     	;# 
   932  071B                     	;# 
   933  071C                     	;# 
   934  071D                     	;# 
   935  071E                     	;# 
   936  0796                     	;# 
   937  0797                     	;# 
   938  0798                     	;# 
   939  0799                     	;# 
   940  079A                     	;# 
   941  079B                     	;# 
   942  080C                     	;# 
   943  080D                     	;# 
   944  080E                     	;# 
   945  080F                     	;# 
   946  0810                     	;# 
   947  0811                     	;# 
   948  0812                     	;# 
   949  0813                     	;# 
   950  0814                     	;# 
   951  081A                     	;# 
   952  081B                     	;# 
   953  081C                     	;# 
   954  081D                     	;# 
   955  081E                     	;# 
   956  081F                     	;# 
   957  088C                     	;# 
   958  088D                     	;# 
   959  088E                     	;# 
   960  088F                     	;# 
   961  0890                     	;# 
   962  0891                     	;# 
   963  0892                     	;# 
   964  0893                     	;# 
   965  0895                     	;# 
   966  0896                     	;# 
   967  0897                     	;# 
   968  0898                     	;# 
   969  0899                     	;# 
   970  089A                     	;# 
   971  089B                     	;# 
   972  090C                     	;# 
   973  090E                     	;# 
   974  090F                     	;# 
   975  091F                     	;# 
   976  098F                     	;# 
   977  098F                     	;# 
   978  0990                     	;# 
   979  0991                     	;# 
   980  0992                     	;# 
   981  0993                     	;# 
   982  0994                     	;# 
   983  0995                     	;# 
   984  0996                     	;# 
   985  0997                     	;# 
   986  1E0F                     	;# 
   987  1E10                     	;# 
   988  1E11                     	;# 
   989  1E12                     	;# 
   990  1E13                     	;# 
   991  1E14                     	;# 
   992  1E15                     	;# 
   993  1E16                     	;# 
   994  1E17                     	;# 
   995  1E18                     	;# 
   996  1E19                     	;# 
   997  1E1A                     	;# 
   998  1E1B                     	;# 
   999  1E1C                     	;# 
  1000  1E1D                     	;# 
  1001  1E1E                     	;# 
  1002  1E1F                     	;# 
  1003  1E20                     	;# 
  1004  1E21                     	;# 
  1005  1E22                     	;# 
  1006  1E23                     	;# 
  1007  1E24                     	;# 
  1008  1E25                     	;# 
  1009  1E26                     	;# 
  1010  1E27                     	;# 
  1011  1E28                     	;# 
  1012  1E29                     	;# 
  1013  1E2A                     	;# 
  1014  1E2B                     	;# 
  1015  1E2C                     	;# 
  1016  1E2D                     	;# 
  1017  1E2E                     	;# 
  1018  1E2F                     	;# 
  1019  1E30                     	;# 
  1020  1E31                     	;# 
  1021  1E32                     	;# 
  1022  1E33                     	;# 
  1023  1E34                     	;# 
  1024  1E35                     	;# 
  1025  1E36                     	;# 
  1026  1E37                     	;# 
  1027  1E8F                     	;# 
  1028  1E90                     	;# 
  1029  1E91                     	;# 
  1030  1E92                     	;# 
  1031  1E93                     	;# 
  1032  1E94                     	;# 
  1033  1E95                     	;# 
  1034  1E96                     	;# 
  1035  1E97                     	;# 
  1036  1E9C                     	;# 
  1037  1E9D                     	;# 
  1038  1E9E                     	;# 
  1039  1EA1                     	;# 
  1040  1EA2                     	;# 
  1041  1EA3                     	;# 
  1042  1EA4                     	;# 
  1043  1EA5                     	;# 
  1044  1EA9                     	;# 
  1045  1EAA                     	;# 
  1046  1EAB                     	;# 
  1047  1EAC                     	;# 
  1048  1EB1                     	;# 
  1049  1EB2                     	;# 
  1050  1EB3                     	;# 
  1051  1EB8                     	;# 
  1052  1EB9                     	;# 
  1053  1EBA                     	;# 
  1054  1EBB                     	;# 
  1055  1EBC                     	;# 
  1056  1EBD                     	;# 
  1057  1EBE                     	;# 
  1058  1EC3                     	;# 
  1059  1EC5                     	;# 
  1060  1EC6                     	;# 
  1061  1EC7                     	;# 
  1062  1EC8                     	;# 
  1063  1EC9                     	;# 
  1064  1ECA                     	;# 
  1065  1ECB                     	;# 
  1066  1ECC                     	;# 
  1067  1F10                     	;# 
  1068  1F11                     	;# 
  1069  1F12                     	;# 
  1070  1F13                     	;# 
  1071  1F14                     	;# 
  1072  1F15                     	;# 
  1073  1F16                     	;# 
  1074  1F17                     	;# 
  1075  1F18                     	;# 
  1076  1F19                     	;# 
  1077  1F1A                     	;# 
  1078  1F1B                     	;# 
  1079  1F1C                     	;# 
  1080  1F1D                     	;# 
  1081  1F1E                     	;# 
  1082  1F1F                     	;# 
  1083  1F20                     	;# 
  1084  1F21                     	;# 
  1085  1F22                     	;# 
  1086  1F23                     	;# 
  1087  1F24                     	;# 
  1088  1F25                     	;# 
  1089  1F26                     	;# 
  1090  1F27                     	;# 
  1091  1F28                     	;# 
  1092  1F29                     	;# 
  1093  1F2A                     	;# 
  1094  1F2B                     	;# 
  1095  1F2C                     	;# 
  1096  1F2D                     	;# 
  1097  1F2E                     	;# 
  1098  1F2F                     	;# 
  1099  1F30                     	;# 
  1100  1F31                     	;# 
  1101  1F32                     	;# 
  1102  1F38                     	;# 
  1103  1F39                     	;# 
  1104  1F3A                     	;# 
  1105  1F3B                     	;# 
  1106  1F3C                     	;# 
  1107  1F3D                     	;# 
  1108  1F3E                     	;# 
  1109  1F3F                     	;# 
  1110  1F40                     	;# 
  1111  1F41                     	;# 
  1112  1F43                     	;# 
  1113  1F44                     	;# 
  1114  1F45                     	;# 
  1115  1F46                     	;# 
  1116  1F47                     	;# 
  1117  1F48                     	;# 
  1118  1F49                     	;# 
  1119  1F4A                     	;# 
  1120  1F4B                     	;# 
  1121  1F4C                     	;# 
  1122  1F4E                     	;# 
  1123  1F4F                     	;# 
  1124  1F50                     	;# 
  1125  1F51                     	;# 
  1126  1F52                     	;# 
  1127  1F53                     	;# 
  1128  1F54                     	;# 
  1129  1F55                     	;# 
  1130  1F56                     	;# 
  1131  1F57                     	;# 
  1132  1F59                     	;# 
  1133  1F5A                     	;# 
  1134  1F5B                     	;# 
  1135  1F5C                     	;# 
  1136  1F5D                     	;# 
  1137  1F61                     	;# 
  1138  1F62                     	;# 
  1139  1F64                     	;# 
  1140  1F65                     	;# 
  1141  1F66                     	;# 
  1142  1F67                     	;# 
  1143  1F68                     	;# 
  1144  1F69                     	;# 
  1145  1F6A                     	;# 
  1146  1F6B                     	;# 
  1147  1F6C                     	;# 
  1148  1F6D                     	;# 
  1149  1FE4                     	;# 
  1150  1FE5                     	;# 
  1151  1FE6                     	;# 
  1152  1FE7                     	;# 
  1153  1FE8                     	;# 
  1154  1FE9                     	;# 
  1155  1FEA                     	;# 
  1156  1FEB                     	;# 
  1157  1FED                     	;# 
  1158  1FEE                     	;# 
  1159  1FEF                     	;# 
  1160  0000                     	;# 
  1161  0001                     	;# 
  1162  0002                     	;# 
  1163  0003                     	;# 
  1164  0004                     	;# 
  1165  0005                     	;# 
  1166  0006                     	;# 
  1167  0007                     	;# 
  1168  0008                     	;# 
  1169  0009                     	;# 
  1170  000A                     	;# 
  1171  000B                     	;# 
  1172  000C                     	;# 
  1173  000D                     	;# 
  1174  000E                     	;# 
  1175  000F                     	;# 
  1176  0010                     	;# 
  1177  0011                     	;# 
  1178  0012                     	;# 
  1179  0013                     	;# 
  1180  0014                     	;# 
  1181  0015                     	;# 
  1182  0016                     	;# 
  1183  0017                     	;# 
  1184  0018                     	;# 
  1185  0019                     	;# 
  1186  001A                     	;# 
  1187  001C                     	;# 
  1188  001C                     	;# 
  1189  001D                     	;# 
  1190  001D                     	;# 
  1191  001E                     	;# 
  1192  001F                     	;# 
  1193  008C                     	;# 
  1194  008C                     	;# 
  1195  008D                     	;# 
  1196  008E                     	;# 
  1197  008E                     	;# 
  1198  008F                     	;# 
  1199  0090                     	;# 
  1200  0090                     	;# 
  1201  0091                     	;# 
  1202  0093                     	;# 
  1203  0094                     	;# 
  1204  0095                     	;# 
  1205  0096                     	;# 
  1206  0097                     	;# 
  1207  0098                     	;# 
  1208  0099                     	;# 
  1209  009A                     	;# 
  1210  009B                     	;# 
  1211  009C                     	;# 
  1212  009D                     	;# 
  1213  009E                     	;# 
  1214  010C                     	;# 
  1215  010D                     	;# 
  1216  010E                     	;# 
  1217  010E                     	;# 
  1218  010F                     	;# 
  1219  0110                     	;# 
  1220  0110                     	;# 
  1221  0111                     	;# 
  1222  0112                     	;# 
  1223  0112                     	;# 
  1224  0113                     	;# 
  1225  0114                     	;# 
  1226  0114                     	;# 
  1227  0115                     	;# 
  1228  0116                     	;# 
  1229  0116                     	;# 
  1230  0117                     	;# 
  1231  0119                     	;# 
  1232  0119                     	;# 
  1233  0119                     	;# 
  1234  011A                     	;# 
  1235  011A                     	;# 
  1236  011A                     	;# 
  1237  011B                     	;# 
  1238  011B                     	;# 
  1239  011B                     	;# 
  1240  011B                     	;# 
  1241  011B                     	;# 
  1242  011C                     	;# 
  1243  011C                     	;# 
  1244  011C                     	;# 
  1245  011D                     	;# 
  1246  011D                     	;# 
  1247  011D                     	;# 
  1248  011E                     	;# 
  1249  011E                     	;# 
  1250  011E                     	;# 
  1251  011F                     	;# 
  1252  011F                     	;# 
  1253  011F                     	;# 
  1254  011F                     	;# 
  1255  011F                     	;# 
  1256  018C                     	;# 
  1257  018D                     	;# 
  1258  018E                     	;# 
  1259  018F                     	;# 
  1260  0190                     	;# 
  1261  0191                     	;# 
  1262  0192                     	;# 
  1263  0196                     	;# 
  1264  0197                     	;# 
  1265  0198                     	;# 
  1266  0199                     	;# 
  1267  019A                     	;# 
  1268  019B                     	;# 
  1269  019C                     	;# 
  1270  020C                     	;# 
  1271  020C                     	;# 
  1272  020D                     	;# 
  1273  020E                     	;# 
  1274  020F                     	;# 
  1275  020F                     	;# 
  1276  0210                     	;# 
  1277  0210                     	;# 
  1278  0211                     	;# 
  1279  0211                     	;# 
  1280  0212                     	;# 
  1281  0212                     	;# 
  1282  0213                     	;# 
  1283  0214                     	;# 
  1284  0215                     	;# 
  1285  0215                     	;# 
  1286  0216                     	;# 
  1287  0216                     	;# 
  1288  0217                     	;# 
  1289  0217                     	;# 
  1290  0218                     	;# 
  1291  0218                     	;# 
  1292  0219                     	;# 
  1293  021A                     	;# 
  1294  021B                     	;# 
  1295  021B                     	;# 
  1296  021C                     	;# 
  1297  021C                     	;# 
  1298  021D                     	;# 
  1299  021D                     	;# 
  1300  021E                     	;# 
  1301  021F                     	;# 
  1302  028C                     	;# 
  1303  028C                     	;# 
  1304  028D                     	;# 
  1305  028D                     	;# 
  1306  028E                     	;# 
  1307  028F                     	;# 
  1308  0290                     	;# 
  1309  0290                     	;# 
  1310  0291                     	;# 
  1311  0292                     	;# 
  1312  0292                     	;# 
  1313  0293                     	;# 
  1314  0293                     	;# 
  1315  0294                     	;# 
  1316  0295                     	;# 
  1317  0296                     	;# 
  1318  0296                     	;# 
  1319  0297                     	;# 
  1320  0298                     	;# 
  1321  0298                     	;# 
  1322  0299                     	;# 
  1323  0299                     	;# 
  1324  029A                     	;# 
  1325  029B                     	;# 
  1326  029C                     	;# 
  1327  029C                     	;# 
  1328  029D                     	;# 
  1329  030C                     	;# 
  1330  030C                     	;# 
  1331  030D                     	;# 
  1332  030E                     	;# 
  1333  030F                     	;# 
  1334  0310                     	;# 
  1335  0310                     	;# 
  1336  0311                     	;# 
  1337  0312                     	;# 
  1338  0313                     	;# 
  1339  0314                     	;# 
  1340  0314                     	;# 
  1341  0315                     	;# 
  1342  0316                     	;# 
  1343  0317                     	;# 
  1344  0318                     	;# 
  1345  0318                     	;# 
  1346  0319                     	;# 
  1347  031A                     	;# 
  1348  031B                     	;# 
  1349  031C                     	;# 
  1350  031C                     	;# 
  1351  031D                     	;# 
  1352  031E                     	;# 
  1353  031F                     	;# 
  1354  038C                     	;# 
  1355  038C                     	;# 
  1356  038D                     	;# 
  1357  038E                     	;# 
  1358  0390                     	;# 
  1359  0390                     	;# 
  1360  0391                     	;# 
  1361  0392                     	;# 
  1362  040C                     	;# 
  1363  040D                     	;# 
  1364  040E                     	;# 
  1365  040F                     	;# 
  1366  0410                     	;# 
  1367  0411                     	;# 
  1368  0416                     	;# 
  1369  0416                     	;# 
  1370  0417                     	;# 
  1371  0418                     	;# 
  1372  0418                     	;# 
  1373  0419                     	;# 
  1374  041A                     	;# 
  1375  041A                     	;# 
  1376  041B                     	;# 
  1377  041C                     	;# 
  1378  041C                     	;# 
  1379  041D                     	;# 
  1380  041E                     	;# 
  1381  041F                     	;# 
  1382  048C                     	;# 
  1383  048C                     	;# 
  1384  048D                     	;# 
  1385  048E                     	;# 
  1386  048F                     	;# 
  1387  048F                     	;# 
  1388  0490                     	;# 
  1389  0491                     	;# 
  1390  0492                     	;# 
  1391  0492                     	;# 
  1392  0493                     	;# 
  1393  0494                     	;# 
  1394  0495                     	;# 
  1395  0495                     	;# 
  1396  0496                     	;# 
  1397  0497                     	;# 
  1398  0498                     	;# 
  1399  0499                     	;# 
  1400  049A                     	;# 
  1401  049B                     	;# 
  1402  049C                     	;# 
  1403  049D                     	;# 
  1404  050C                     	;# 
  1405  050C                     	;# 
  1406  050D                     	;# 
  1407  050E                     	;# 
  1408  050F                     	;# 
  1409  050F                     	;# 
  1410  0510                     	;# 
  1411  0511                     	;# 
  1412  0512                     	;# 
  1413  0512                     	;# 
  1414  0513                     	;# 
  1415  0514                     	;# 
  1416  0515                     	;# 
  1417  0515                     	;# 
  1418  0516                     	;# 
  1419  0517                     	;# 
  1420  0518                     	;# 
  1421  0519                     	;# 
  1422  051A                     	;# 
  1423  051B                     	;# 
  1424  051C                     	;# 
  1425  051D                     	;# 
  1426  058C                     	;# 
  1427  058C                     	;# 
  1428  058D                     	;# 
  1429  058E                     	;# 
  1430  058F                     	;# 
  1431  058F                     	;# 
  1432  0590                     	;# 
  1433  0591                     	;# 
  1434  0592                     	;# 
  1435  0593                     	;# 
  1436  060C                     	;# 
  1437  060D                     	;# 
  1438  060E                     	;# 
  1439  060F                     	;# 
  1440  0610                     	;# 
  1441  0611                     	;# 
  1442  0612                     	;# 
  1443  0613                     	;# 
  1444  0614                     	;# 
  1445  0616                     	;# 
  1446  0617                     	;# 
  1447  0618                     	;# 
  1448  0619                     	;# 
  1449  061A                     	;# 
  1450  061B                     	;# 
  1451  061C                     	;# 
  1452  061D                     	;# 
  1453  061E                     	;# 
  1454  068C                     	;# 
  1455  068D                     	;# 
  1456  068E                     	;# 
  1457  068F                     	;# 
  1458  0690                     	;# 
  1459  0691                     	;# 
  1460  0692                     	;# 
  1461  0693                     	;# 
  1462  0694                     	;# 
  1463  070C                     	;# 
  1464  070D                     	;# 
  1465  070E                     	;# 
  1466  070F                     	;# 
  1467  0710                     	;# 
  1468  0711                     	;# 
  1469  0712                     	;# 
  1470  0713                     	;# 
  1471  0714                     	;# 
  1472  0716                     	;# 
  1473  0717                     	;# 
  1474  0718                     	;# 
  1475  0719                     	;# 
  1476  071A                     	;# 
  1477  071B                     	;# 
  1478  071C                     	;# 
  1479  071D                     	;# 
  1480  071E                     	;# 
  1481  0796                     	;# 
  1482  0797                     	;# 
  1483  0798                     	;# 
  1484  0799                     	;# 
  1485  079A                     	;# 
  1486  079B                     	;# 
  1487  080C                     	;# 
  1488  080D                     	;# 
  1489  080E                     	;# 
  1490  080F                     	;# 
  1491  0810                     	;# 
  1492  0811                     	;# 
  1493  0812                     	;# 
  1494  0813                     	;# 
  1495  0814                     	;# 
  1496  081A                     	;# 
  1497  081B                     	;# 
  1498  081C                     	;# 
  1499  081D                     	;# 
  1500  081E                     	;# 
  1501  081F                     	;# 
  1502  088C                     	;# 
  1503  088D                     	;# 
  1504  088E                     	;# 
  1505  088F                     	;# 
  1506  0890                     	;# 
  1507  0891                     	;# 
  1508  0892                     	;# 
  1509  0893                     	;# 
  1510  0895                     	;# 
  1511  0896                     	;# 
  1512  0897                     	;# 
  1513  0898                     	;# 
  1514  0899                     	;# 
  1515  089A                     	;# 
  1516  089B                     	;# 
  1517  090C                     	;# 
  1518  090E                     	;# 
  1519  090F                     	;# 
  1520  091F                     	;# 
  1521  098F                     	;# 
  1522  098F                     	;# 
  1523  0990                     	;# 
  1524  0991                     	;# 
  1525  0992                     	;# 
  1526  0993                     	;# 
  1527  0994                     	;# 
  1528  0995                     	;# 
  1529  0996                     	;# 
  1530  0997                     	;# 
  1531  1E0F                     	;# 
  1532  1E10                     	;# 
  1533  1E11                     	;# 
  1534  1E12                     	;# 
  1535  1E13                     	;# 
  1536  1E14                     	;# 
  1537  1E15                     	;# 
  1538  1E16                     	;# 
  1539  1E17                     	;# 
  1540  1E18                     	;# 
  1541  1E19                     	;# 
  1542  1E1A                     	;# 
  1543  1E1B                     	;# 
  1544  1E1C                     	;# 
  1545  1E1D                     	;# 
  1546  1E1E                     	;# 
  1547  1E1F                     	;# 
  1548  1E20                     	;# 
  1549  1E21                     	;# 
  1550  1E22                     	;# 
  1551  1E23                     	;# 
  1552  1E24                     	;# 
  1553  1E25                     	;# 
  1554  1E26                     	;# 
  1555  1E27                     	;# 
  1556  1E28                     	;# 
  1557  1E29                     	;# 
  1558  1E2A                     	;# 
  1559  1E2B                     	;# 
  1560  1E2C                     	;# 
  1561  1E2D                     	;# 
  1562  1E2E                     	;# 
  1563  1E2F                     	;# 
  1564  1E30                     	;# 
  1565  1E31                     	;# 
  1566  1E32                     	;# 
  1567  1E33                     	;# 
  1568  1E34                     	;# 
  1569  1E35                     	;# 
  1570  1E36                     	;# 
  1571  1E37                     	;# 
  1572  1E8F                     	;# 
  1573  1E90                     	;# 
  1574  1E91                     	;# 
  1575  1E92                     	;# 
  1576  1E93                     	;# 
  1577  1E94                     	;# 
  1578  1E95                     	;# 
  1579  1E96                     	;# 
  1580  1E97                     	;# 
  1581  1E9C                     	;# 
  1582  1E9D                     	;# 
  1583  1E9E                     	;# 
  1584  1EA1                     	;# 
  1585  1EA2                     	;# 
  1586  1EA3                     	;# 
  1587  1EA4                     	;# 
  1588  1EA5                     	;# 
  1589  1EA9                     	;# 
  1590  1EAA                     	;# 
  1591  1EAB                     	;# 
  1592  1EAC                     	;# 
  1593  1EB1                     	;# 
  1594  1EB2                     	;# 
  1595  1EB3                     	;# 
  1596  1EB8                     	;# 
  1597  1EB9                     	;# 
  1598  1EBA                     	;# 
  1599  1EBB                     	;# 
  1600  1EBC                     	;# 
  1601  1EBD                     	;# 
  1602  1EBE                     	;# 
  1603  1EC3                     	;# 
  1604  1EC5                     	;# 
  1605  1EC6                     	;# 
  1606  1EC7                     	;# 
  1607  1EC8                     	;# 
  1608  1EC9                     	;# 
  1609  1ECA                     	;# 
  1610  1ECB                     	;# 
  1611  1ECC                     	;# 
  1612  1F10                     	;# 
  1613  1F11                     	;# 
  1614  1F12                     	;# 
  1615  1F13                     	;# 
  1616  1F14                     	;# 
  1617  1F15                     	;# 
  1618  1F16                     	;# 
  1619  1F17                     	;# 
  1620  1F18                     	;# 
  1621  1F19                     	;# 
  1622  1F1A                     	;# 
  1623  1F1B                     	;# 
  1624  1F1C                     	;# 
  1625  1F1D                     	;# 
  1626  1F1E                     	;# 
  1627  1F1F                     	;# 
  1628  1F20                     	;# 
  1629  1F21                     	;# 
  1630  1F22                     	;# 
  1631  1F23                     	;# 
  1632  1F24                     	;# 
  1633  1F25                     	;# 
  1634  1F26                     	;# 
  1635  1F27                     	;# 
  1636  1F28                     	;# 
  1637  1F29                     	;# 
  1638  1F2A                     	;# 
  1639  1F2B                     	;# 
  1640  1F2C                     	;# 
  1641  1F2D                     	;# 
  1642  1F2E                     	;# 
  1643  1F2F                     	;# 
  1644  1F30                     	;# 
  1645  1F31                     	;# 
  1646  1F32                     	;# 
  1647  1F38                     	;# 
  1648  1F39                     	;# 
  1649  1F3A                     	;# 
  1650  1F3B                     	;# 
  1651  1F3C                     	;# 
  1652  1F3D                     	;# 
  1653  1F3E                     	;# 
  1654  1F3F                     	;# 
  1655  1F40                     	;# 
  1656  1F41                     	;# 
  1657  1F43                     	;# 
  1658  1F44                     	;# 
  1659  1F45                     	;# 
  1660  1F46                     	;# 
  1661  1F47                     	;# 
  1662  1F48                     	;# 
  1663  1F49                     	;# 
  1664  1F4A                     	;# 
  1665  1F4B                     	;# 
  1666  1F4C                     	;# 
  1667  1F4E                     	;# 
  1668  1F4F                     	;# 
  1669  1F50                     	;# 
  1670  1F51                     	;# 
  1671  1F52                     	;# 
  1672  1F53                     	;# 
  1673  1F54                     	;# 
  1674  1F55                     	;# 
  1675  1F56                     	;# 
  1676  1F57                     	;# 
  1677  1F59                     	;# 
  1678  1F5A                     	;# 
  1679  1F5B                     	;# 
  1680  1F5C                     	;# 
  1681  1F5D                     	;# 
  1682  1F61                     	;# 
  1683  1F62                     	;# 
  1684  1F64                     	;# 
  1685  1F65                     	;# 
  1686  1F66                     	;# 
  1687  1F67                     	;# 
  1688  1F68                     	;# 
  1689  1F69                     	;# 
  1690  1F6A                     	;# 
  1691  1F6B                     	;# 
  1692  1F6C                     	;# 
  1693  1F6D                     	;# 
  1694  1FE4                     	;# 
  1695  1FE5                     	;# 
  1696  1FE6                     	;# 
  1697  1FE7                     	;# 
  1698  1FE8                     	;# 
  1699  1FE9                     	;# 
  1700  1FEA                     	;# 
  1701  1FEB                     	;# 
  1702  1FED                     	;# 
  1703  1FEE                     	;# 
  1704  1FEF                     	;# 
  1705  0000                     	;# 
  1706  0001                     	;# 
  1707  0002                     	;# 
  1708  0003                     	;# 
  1709  0004                     	;# 
  1710  0005                     	;# 
  1711  0006                     	;# 
  1712  0007                     	;# 
  1713  0008                     	;# 
  1714  0009                     	;# 
  1715  000A                     	;# 
  1716  000B                     	;# 
  1717  000C                     	;# 
  1718  000D                     	;# 
  1719  000E                     	;# 
  1720  000F                     	;# 
  1721  0010                     	;# 
  1722  0011                     	;# 
  1723  0012                     	;# 
  1724  0013                     	;# 
  1725  0014                     	;# 
  1726  0015                     	;# 
  1727  0016                     	;# 
  1728  0017                     	;# 
  1729  0018                     	;# 
  1730  0019                     	;# 
  1731  001A                     	;# 
  1732  001C                     	;# 
  1733  001C                     	;# 
  1734  001D                     	;# 
  1735  001D                     	;# 
  1736  001E                     	;# 
  1737  001F                     	;# 
  1738  008C                     	;# 
  1739  008C                     	;# 
  1740  008D                     	;# 
  1741  008E                     	;# 
  1742  008E                     	;# 
  1743  008F                     	;# 
  1744  0090                     	;# 
  1745  0090                     	;# 
  1746  0091                     	;# 
  1747  0093                     	;# 
  1748  0094                     	;# 
  1749  0095                     	;# 
  1750  0096                     	;# 
  1751  0097                     	;# 
  1752  0098                     	;# 
  1753  0099                     	;# 
  1754  009A                     	;# 
  1755  009B                     	;# 
  1756  009C                     	;# 
  1757  009D                     	;# 
  1758  009E                     	;# 
  1759  010C                     	;# 
  1760  010D                     	;# 
  1761  010E                     	;# 
  1762  010E                     	;# 
  1763  010F                     	;# 
  1764  0110                     	;# 
  1765  0110                     	;# 
  1766  0111                     	;# 
  1767  0112                     	;# 
  1768  0112                     	;# 
  1769  0113                     	;# 
  1770  0114                     	;# 
  1771  0114                     	;# 
  1772  0115                     	;# 
  1773  0116                     	;# 
  1774  0116                     	;# 
  1775  0117                     	;# 
  1776  0119                     	;# 
  1777  0119                     	;# 
  1778  0119                     	;# 
  1779  011A                     	;# 
  1780  011A                     	;# 
  1781  011A                     	;# 
  1782  011B                     	;# 
  1783  011B                     	;# 
  1784  011B                     	;# 
  1785  011B                     	;# 
  1786  011B                     	;# 
  1787  011C                     	;# 
  1788  011C                     	;# 
  1789  011C                     	;# 
  1790  011D                     	;# 
  1791  011D                     	;# 
  1792  011D                     	;# 
  1793  011E                     	;# 
  1794  011E                     	;# 
  1795  011E                     	;# 
  1796  011F                     	;# 
  1797  011F                     	;# 
  1798  011F                     	;# 
  1799  011F                     	;# 
  1800  011F                     	;# 
  1801  018C                     	;# 
  1802  018D                     	;# 
  1803  018E                     	;# 
  1804  018F                     	;# 
  1805  0190                     	;# 
  1806  0191                     	;# 
  1807  0192                     	;# 
  1808  0196                     	;# 
  1809  0197                     	;# 
  1810  0198                     	;# 
  1811  0199                     	;# 
  1812  019A                     	;# 
  1813  019B                     	;# 
  1814  019C                     	;# 
  1815  020C                     	;# 
  1816  020C                     	;# 
  1817  020D                     	;# 
  1818  020E                     	;# 
  1819  020F                     	;# 
  1820  020F                     	;# 
  1821  0210                     	;# 
  1822  0210                     	;# 
  1823  0211                     	;# 
  1824  0211                     	;# 
  1825  0212                     	;# 
  1826  0212                     	;# 
  1827  0213                     	;# 
  1828  0214                     	;# 
  1829  0215                     	;# 
  1830  0215                     	;# 
  1831  0216                     	;# 
  1832  0216                     	;# 
  1833  0217                     	;# 
  1834  0217                     	;# 
  1835  0218                     	;# 
  1836  0218                     	;# 
  1837  0219                     	;# 
  1838  021A                     	;# 
  1839  021B                     	;# 
  1840  021B                     	;# 
  1841  021C                     	;# 
  1842  021C                     	;# 
  1843  021D                     	;# 
  1844  021D                     	;# 
  1845  021E                     	;# 
  1846  021F                     	;# 
  1847  028C                     	;# 
  1848  028C                     	;# 
  1849  028D                     	;# 
  1850  028D                     	;# 
  1851  028E                     	;# 
  1852  028F                     	;# 
  1853  0290                     	;# 
  1854  0290                     	;# 
  1855  0291                     	;# 
  1856  0292                     	;# 
  1857  0292                     	;# 
  1858  0293                     	;# 
  1859  0293                     	;# 
  1860  0294                     	;# 
  1861  0295                     	;# 
  1862  0296                     	;# 
  1863  0296                     	;# 
  1864  0297                     	;# 
  1865  0298                     	;# 
  1866  0298                     	;# 
  1867  0299                     	;# 
  1868  0299                     	;# 
  1869  029A                     	;# 
  1870  029B                     	;# 
  1871  029C                     	;# 
  1872  029C                     	;# 
  1873  029D                     	;# 
  1874  030C                     	;# 
  1875  030C                     	;# 
  1876  030D                     	;# 
  1877  030E                     	;# 
  1878  030F                     	;# 
  1879  0310                     	;# 
  1880  0310                     	;# 
  1881  0311                     	;# 
  1882  0312                     	;# 
  1883  0313                     	;# 
  1884  0314                     	;# 
  1885  0314                     	;# 
  1886  0315                     	;# 
  1887  0316                     	;# 
  1888  0317                     	;# 
  1889  0318                     	;# 
  1890  0318                     	;# 
  1891  0319                     	;# 
  1892  031A                     	;# 
  1893  031B                     	;# 
  1894  031C                     	;# 
  1895  031C                     	;# 
  1896  031D                     	;# 
  1897  031E                     	;# 
  1898  031F                     	;# 
  1899  038C                     	;# 
  1900  038C                     	;# 
  1901  038D                     	;# 
  1902  038E                     	;# 
  1903  0390                     	;# 
  1904  0390                     	;# 
  1905  0391                     	;# 
  1906  0392                     	;# 
  1907  040C                     	;# 
  1908  040D                     	;# 
  1909  040E                     	;# 
  1910  040F                     	;# 
  1911  0410                     	;# 
  1912  0411                     	;# 
  1913  0416                     	;# 
  1914  0416                     	;# 
  1915  0417                     	;# 
  1916  0418                     	;# 
  1917  0418                     	;# 
  1918  0419                     	;# 
  1919  041A                     	;# 
  1920  041A                     	;# 
  1921  041B                     	;# 
  1922  041C                     	;# 
  1923  041C                     	;# 
  1924  041D                     	;# 
  1925  041E                     	;# 
  1926  041F                     	;# 
  1927  048C                     	;# 
  1928  048C                     	;# 
  1929  048D                     	;# 
  1930  048E                     	;# 
  1931  048F                     	;# 
  1932  048F                     	;# 
  1933  0490                     	;# 
  1934  0491                     	;# 
  1935  0492                     	;# 
  1936  0492                     	;# 
  1937  0493                     	;# 
  1938  0494                     	;# 
  1939  0495                     	;# 
  1940  0495                     	;# 
  1941  0496                     	;# 
  1942  0497                     	;# 
  1943  0498                     	;# 
  1944  0499                     	;# 
  1945  049A                     	;# 
  1946  049B                     	;# 
  1947  049C                     	;# 
  1948  049D                     	;# 
  1949  050C                     	;# 
  1950  050C                     	;# 
  1951  050D                     	;# 
  1952  050E                     	;# 
  1953  050F                     	;# 
  1954  050F                     	;# 
  1955  0510                     	;# 
  1956  0511                     	;# 
  1957  0512                     	;# 
  1958  0512                     	;# 
  1959  0513                     	;# 
  1960  0514                     	;# 
  1961  0515                     	;# 
  1962  0515                     	;# 
  1963  0516                     	;# 
  1964  0517                     	;# 
  1965  0518                     	;# 
  1966  0519                     	;# 
  1967  051A                     	;# 
  1968  051B                     	;# 
  1969  051C                     	;# 
  1970  051D                     	;# 
  1971  058C                     	;# 
  1972  058C                     	;# 
  1973  058D                     	;# 
  1974  058E                     	;# 
  1975  058F                     	;# 
  1976  058F                     	;# 
  1977  0590                     	;# 
  1978  0591                     	;# 
  1979  0592                     	;# 
  1980  0593                     	;# 
  1981  060C                     	;# 
  1982  060D                     	;# 
  1983  060E                     	;# 
  1984  060F                     	;# 
  1985  0610                     	;# 
  1986  0611                     	;# 
  1987  0612                     	;# 
  1988  0613                     	;# 
  1989  0614                     	;# 
  1990  0616                     	;# 
  1991  0617                     	;# 
  1992  0618                     	;# 
  1993  0619                     	;# 
  1994  061A                     	;# 
  1995  061B                     	;# 
  1996  061C                     	;# 
  1997  061D                     	;# 
  1998  061E                     	;# 
  1999  068C                     	;# 
  2000  068D                     	;# 
  2001  068E                     	;# 
  2002  068F                     	;# 
  2003  0690                     	;# 
  2004  0691                     	;# 
  2005  0692                     	;# 
  2006  0693                     	;# 
  2007  0694                     	;# 
  2008  070C                     	;# 
  2009  070D                     	;# 
  2010  070E                     	;# 
  2011  070F                     	;# 
  2012  0710                     	;# 
  2013  0711                     	;# 
  2014  0712                     	;# 
  2015  0713                     	;# 
  2016  0714                     	;# 
  2017  0716                     	;# 
  2018  0717                     	;# 
  2019  0718                     	;# 
  2020  0719                     	;# 
  2021  071A                     	;# 
  2022  071B                     	;# 
  2023  071C                     	;# 
  2024  071D                     	;# 
  2025  071E                     	;# 
  2026  0796                     	;# 
  2027  0797                     	;# 
  2028  0798                     	;# 
  2029  0799                     	;# 
  2030  079A                     	;# 
  2031  079B                     	;# 
  2032  080C                     	;# 
  2033  080D                     	;# 
  2034  080E                     	;# 
  2035  080F                     	;# 
  2036  0810                     	;# 
  2037  0811                     	;# 
  2038  0812                     	;# 
  2039  0813                     	;# 
  2040  0814                     	;# 
  2041  081A                     	;# 
  2042  081B                     	;# 
  2043  081C                     	;# 
  2044  081D                     	;# 
  2045  081E                     	;# 
  2046  081F                     	;# 
  2047  088C                     	;# 
  2048  088D                     	;# 
  2049  088E                     	;# 
  2050  088F                     	;# 
  2051  0890                     	;# 
  2052  0891                     	;# 
  2053  0892                     	;# 
  2054  0893                     	;# 
  2055  0895                     	;# 
  2056  0896                     	;# 
  2057  0897                     	;# 
  2058  0898                     	;# 
  2059  0899                     	;# 
  2060  089A                     	;# 
  2061  089B                     	;# 
  2062  090C                     	;# 
  2063  090E                     	;# 
  2064  090F                     	;# 
  2065  091F                     	;# 
  2066  098F                     	;# 
  2067  098F                     	;# 
  2068  0990                     	;# 
  2069  0991                     	;# 
  2070  0992                     	;# 
  2071  0993                     	;# 
  2072  0994                     	;# 
  2073  0995                     	;# 
  2074  0996                     	;# 
  2075  0997                     	;# 
  2076  1E0F                     	;# 
  2077  1E10                     	;# 
  2078  1E11                     	;# 
  2079  1E12                     	;# 
  2080  1E13                     	;# 
  2081  1E14                     	;# 
  2082  1E15                     	;# 
  2083  1E16                     	;# 
  2084  1E17                     	;# 
  2085  1E18                     	;# 
  2086  1E19                     	;# 
  2087  1E1A                     	;# 
  2088  1E1B                     	;# 
  2089  1E1C                     	;# 
  2090  1E1D                     	;# 
  2091  1E1E                     	;# 
  2092  1E1F                     	;# 
  2093  1E20                     	;# 
  2094  1E21                     	;# 
  2095  1E22                     	;# 
  2096  1E23                     	;# 
  2097  1E24                     	;# 
  2098  1E25                     	;# 
  2099  1E26                     	;# 
  2100  1E27                     	;# 
  2101  1E28                     	;# 
  2102  1E29                     	;# 
  2103  1E2A                     	;# 
  2104  1E2B                     	;# 
  2105  1E2C                     	;# 
  2106  1E2D                     	;# 
  2107  1E2E                     	;# 
  2108  1E2F                     	;# 
  2109  1E30                     	;# 
  2110  1E31                     	;# 
  2111  1E32                     	;# 
  2112  1E33                     	;# 
  2113  1E34                     	;# 
  2114  1E35                     	;# 
  2115  1E36                     	;# 
  2116  1E37                     	;# 
  2117  1E8F                     	;# 
  2118  1E90                     	;# 
  2119  1E91                     	;# 
  2120  1E92                     	;# 
  2121  1E93                     	;# 
  2122  1E94                     	;# 
  2123  1E95                     	;# 
  2124  1E96                     	;# 
  2125  1E97                     	;# 
  2126  1E9C                     	;# 
  2127  1E9D                     	;# 
  2128  1E9E                     	;# 
  2129  1EA1                     	;# 
  2130  1EA2                     	;# 
  2131  1EA3                     	;# 
  2132  1EA4                     	;# 
  2133  1EA5                     	;# 
  2134  1EA9                     	;# 
  2135  1EAA                     	;# 
  2136  1EAB                     	;# 
  2137  1EAC                     	;# 
  2138  1EB1                     	;# 
  2139  1EB2                     	;# 
  2140  1EB3                     	;# 
  2141  1EB8                     	;# 
  2142  1EB9                     	;# 
  2143  1EBA                     	;# 
  2144  1EBB                     	;# 
  2145  1EBC                     	;# 
  2146  1EBD                     	;# 
  2147  1EBE                     	;# 
  2148  1EC3                     	;# 
  2149  1EC5                     	;# 
  2150  1EC6                     	;# 
  2151  1EC7                     	;# 
  2152  1EC8                     	;# 
  2153  1EC9                     	;# 
  2154  1ECA                     	;# 
  2155  1ECB                     	;# 
  2156  1ECC                     	;# 
  2157  1F10                     	;# 
  2158  1F11                     	;# 
  2159  1F12                     	;# 
  2160  1F13                     	;# 
  2161  1F14                     	;# 
  2162  1F15                     	;# 
  2163  1F16                     	;# 
  2164  1F17                     	;# 
  2165  1F18                     	;# 
  2166  1F19                     	;# 
  2167  1F1A                     	;# 
  2168  1F1B                     	;# 
  2169  1F1C                     	;# 
  2170  1F1D                     	;# 
  2171  1F1E                     	;# 
  2172  1F1F                     	;# 
  2173  1F20                     	;# 
  2174  1F21                     	;# 
  2175  1F22                     	;# 
  2176  1F23                     	;# 
  2177  1F24                     	;# 
  2178  1F25                     	;# 
  2179  1F26                     	;# 
  2180  1F27                     	;# 
  2181  1F28                     	;# 
  2182  1F29                     	;# 
  2183  1F2A                     	;# 
  2184  1F2B                     	;# 
  2185  1F2C                     	;# 
  2186  1F2D                     	;# 
  2187  1F2E                     	;# 
  2188  1F2F                     	;# 
  2189  1F30                     	;# 
  2190  1F31                     	;# 
  2191  1F32                     	;# 
  2192  1F38                     	;# 
  2193  1F39                     	;# 
  2194  1F3A                     	;# 
  2195  1F3B                     	;# 
  2196  1F3C                     	;# 
  2197  1F3D                     	;# 
  2198  1F3E                     	;# 
  2199  1F3F                     	;# 
  2200  1F40                     	;# 
  2201  1F41                     	;# 
  2202  1F43                     	;# 
  2203  1F44                     	;# 
  2204  1F45                     	;# 
  2205  1F46                     	;# 
  2206  1F47                     	;# 
  2207  1F48                     	;# 
  2208  1F49                     	;# 
  2209  1F4A                     	;# 
  2210  1F4B                     	;# 
  2211  1F4C                     	;# 
  2212  1F4E                     	;# 
  2213  1F4F                     	;# 
  2214  1F50                     	;# 
  2215  1F51                     	;# 
  2216  1F52                     	;# 
  2217  1F53                     	;# 
  2218  1F54                     	;# 
  2219  1F55                     	;# 
  2220  1F56                     	;# 
  2221  1F57                     	;# 
  2222  1F59                     	;# 
  2223  1F5A                     	;# 
  2224  1F5B                     	;# 
  2225  1F5C                     	;# 
  2226  1F5D                     	;# 
  2227  1F61                     	;# 
  2228  1F62                     	;# 
  2229  1F64                     	;# 
  2230  1F65                     	;# 
  2231  1F66                     	;# 
  2232  1F67                     	;# 
  2233  1F68                     	;# 
  2234  1F69                     	;# 
  2235  1F6A                     	;# 
  2236  1F6B                     	;# 
  2237  1F6C                     	;# 
  2238  1F6D                     	;# 
  2239  1FE4                     	;# 
  2240  1FE5                     	;# 
  2241  1FE6                     	;# 
  2242  1FE7                     	;# 
  2243  1FE8                     	;# 
  2244  1FE9                     	;# 
  2245  1FEA                     	;# 
  2246  1FEB                     	;# 
  2247  1FED                     	;# 
  2248  1FEE                     	;# 
  2249  1FEF                     	;# 
  2250  0000                     	;# 
  2251  0001                     	;# 
  2252  0002                     	;# 
  2253  0003                     	;# 
  2254  0004                     	;# 
  2255  0005                     	;# 
  2256  0006                     	;# 
  2257  0007                     	;# 
  2258  0008                     	;# 
  2259  0009                     	;# 
  2260  000A                     	;# 
  2261  000B                     	;# 
  2262  000C                     	;# 
  2263  000D                     	;# 
  2264  000E                     	;# 
  2265  000F                     	;# 
  2266  0010                     	;# 
  2267  0011                     	;# 
  2268  0012                     	;# 
  2269  0013                     	;# 
  2270  0014                     	;# 
  2271  0015                     	;# 
  2272  0016                     	;# 
  2273  0017                     	;# 
  2274  0018                     	;# 
  2275  0019                     	;# 
  2276  001A                     	;# 
  2277  001C                     	;# 
  2278  001C                     	;# 
  2279  001D                     	;# 
  2280  001D                     	;# 
  2281  001E                     	;# 
  2282  001F                     	;# 
  2283  008C                     	;# 
  2284  008C                     	;# 
  2285  008D                     	;# 
  2286  008E                     	;# 
  2287  008E                     	;# 
  2288  008F                     	;# 
  2289  0090                     	;# 
  2290  0090                     	;# 
  2291  0091                     	;# 
  2292  0093                     	;# 
  2293  0094                     	;# 
  2294  0095                     	;# 
  2295  0096                     	;# 
  2296  0097                     	;# 
  2297  0098                     	;# 
  2298  0099                     	;# 
  2299  009A                     	;# 
  2300  009B                     	;# 
  2301  009C                     	;# 
  2302  009D                     	;# 
  2303  009E                     	;# 
  2304  010C                     	;# 
  2305  010D                     	;# 
  2306  010E                     	;# 
  2307  010E                     	;# 
  2308  010F                     	;# 
  2309  0110                     	;# 
  2310  0110                     	;# 
  2311  0111                     	;# 
  2312  0112                     	;# 
  2313  0112                     	;# 
  2314  0113                     	;# 
  2315  0114                     	;# 
  2316  0114                     	;# 
  2317  0115                     	;# 
  2318  0116                     	;# 
  2319  0116                     	;# 
  2320  0117                     	;# 
  2321  0119                     	;# 
  2322  0119                     	;# 
  2323  0119                     	;# 
  2324  011A                     	;# 
  2325  011A                     	;# 
  2326  011A                     	;# 
  2327  011B                     	;# 
  2328  011B                     	;# 
  2329  011B                     	;# 
  2330  011B                     	;# 
  2331  011B                     	;# 
  2332  011C                     	;# 
  2333  011C                     	;# 
  2334  011C                     	;# 
  2335  011D                     	;# 
  2336  011D                     	;# 
  2337  011D                     	;# 
  2338  011E                     	;# 
  2339  011E                     	;# 
  2340  011E                     	;# 
  2341  011F                     	;# 
  2342  011F                     	;# 
  2343  011F                     	;# 
  2344  011F                     	;# 
  2345  011F                     	;# 
  2346  018C                     	;# 
  2347  018D                     	;# 
  2348  018E                     	;# 
  2349  018F                     	;# 
  2350  0190                     	;# 
  2351  0191                     	;# 
  2352  0192                     	;# 
  2353  0196                     	;# 
  2354  0197                     	;# 
  2355  0198                     	;# 
  2356  0199                     	;# 
  2357  019A                     	;# 
  2358  019B                     	;# 
  2359  019C                     	;# 
  2360  020C                     	;# 
  2361  020C                     	;# 
  2362  020D                     	;# 
  2363  020E                     	;# 
  2364  020F                     	;# 
  2365  020F                     	;# 
  2366  0210                     	;# 
  2367  0210                     	;# 
  2368  0211                     	;# 
  2369  0211                     	;# 
  2370  0212                     	;# 
  2371  0212                     	;# 
  2372  0213                     	;# 
  2373  0214                     	;# 
  2374  0215                     	;# 
  2375  0215                     	;# 
  2376  0216                     	;# 
  2377  0216                     	;# 
  2378  0217                     	;# 
  2379  0217                     	;# 
  2380  0218                     	;# 
  2381  0218                     	;# 
  2382  0219                     	;# 
  2383  021A                     	;# 
  2384  021B                     	;# 
  2385  021B                     	;# 
  2386  021C                     	;# 
  2387  021C                     	;# 
  2388  021D                     	;# 
  2389  021D                     	;# 
  2390  021E                     	;# 
  2391  021F                     	;# 
  2392  028C                     	;# 
  2393  028C                     	;# 
  2394  028D                     	;# 
  2395  028D                     	;# 
  2396  028E                     	;# 
  2397  028F                     	;# 
  2398  0290                     	;# 
  2399  0290                     	;# 
  2400  0291                     	;# 
  2401  0292                     	;# 
  2402  0292                     	;# 
  2403  0293                     	;# 
  2404  0293                     	;# 
  2405  0294                     	;# 
  2406  0295                     	;# 
  2407  0296                     	;# 
  2408  0296                     	;# 
  2409  0297                     	;# 
  2410  0298                     	;# 
  2411  0298                     	;# 
  2412  0299                     	;# 
  2413  0299                     	;# 
  2414  029A                     	;# 
  2415  029B                     	;# 
  2416  029C                     	;# 
  2417  029C                     	;# 
  2418  029D                     	;# 
  2419  030C                     	;# 
  2420  030C                     	;# 
  2421  030D                     	;# 
  2422  030E                     	;# 
  2423  030F                     	;# 
  2424  0310                     	;# 
  2425  0310                     	;# 
  2426  0311                     	;# 
  2427  0312                     	;# 
  2428  0313                     	;# 
  2429  0314                     	;# 
  2430  0314                     	;# 
  2431  0315                     	;# 
  2432  0316                     	;# 
  2433  0317                     	;# 
  2434  0318                     	;# 
  2435  0318                     	;# 
  2436  0319                     	;# 
  2437  031A                     	;# 
  2438  031B                     	;# 
  2439  031C                     	;# 
  2440  031C                     	;# 
  2441  031D                     	;# 
  2442  031E                     	;# 
  2443  031F                     	;# 
  2444  038C                     	;# 
  2445  038C                     	;# 
  2446  038D                     	;# 
  2447  038E                     	;# 
  2448  0390                     	;# 
  2449  0390                     	;# 
  2450  0391                     	;# 
  2451  0392                     	;# 
  2452  040C                     	;# 
  2453  040D                     	;# 
  2454  040E                     	;# 
  2455  040F                     	;# 
  2456  0410                     	;# 
  2457  0411                     	;# 
  2458  0416                     	;# 
  2459  0416                     	;# 
  2460  0417                     	;# 
  2461  0418                     	;# 
  2462  0418                     	;# 
  2463  0419                     	;# 
  2464  041A                     	;# 
  2465  041A                     	;# 
  2466  041B                     	;# 
  2467  041C                     	;# 
  2468  041C                     	;# 
  2469  041D                     	;# 
  2470  041E                     	;# 
  2471  041F                     	;# 
  2472  048C                     	;# 
  2473  048C                     	;# 
  2474  048D                     	;# 
  2475  048E                     	;# 
  2476  048F                     	;# 
  2477  048F                     	;# 
  2478  0490                     	;# 
  2479  0491                     	;# 
  2480  0492                     	;# 
  2481  0492                     	;# 
  2482  0493                     	;# 
  2483  0494                     	;# 
  2484  0495                     	;# 
  2485  0495                     	;# 
  2486  0496                     	;# 
  2487  0497                     	;# 
  2488  0498                     	;# 
  2489  0499                     	;# 
  2490  049A                     	;# 
  2491  049B                     	;# 
  2492  049C                     	;# 
  2493  049D                     	;# 
  2494  050C                     	;# 
  2495  050C                     	;# 
  2496  050D                     	;# 
  2497  050E                     	;# 
  2498  050F                     	;# 
  2499  050F                     	;# 
  2500  0510                     	;# 
  2501  0511                     	;# 
  2502  0512                     	;# 
  2503  0512                     	;# 
  2504  0513                     	;# 
  2505  0514                     	;# 
  2506  0515                     	;# 
  2507  0515                     	;# 
  2508  0516                     	;# 
  2509  0517                     	;# 
  2510  0518                     	;# 
  2511  0519                     	;# 
  2512  051A                     	;# 
  2513  051B                     	;# 
  2514  051C                     	;# 
  2515  051D                     	;# 
  2516  058C                     	;# 
  2517  058C                     	;# 
  2518  058D                     	;# 
  2519  058E                     	;# 
  2520  058F                     	;# 
  2521  058F                     	;# 
  2522  0590                     	;# 
  2523  0591                     	;# 
  2524  0592                     	;# 
  2525  0593                     	;# 
  2526  060C                     	;# 
  2527  060D                     	;# 
  2528  060E                     	;# 
  2529  060F                     	;# 
  2530  0610                     	;# 
  2531  0611                     	;# 
  2532  0612                     	;# 
  2533  0613                     	;# 
  2534  0614                     	;# 
  2535  0616                     	;# 
  2536  0617                     	;# 
  2537  0618                     	;# 
  2538  0619                     	;# 
  2539  061A                     	;# 
  2540  061B                     	;# 
  2541  061C                     	;# 
  2542  061D                     	;# 
  2543  061E                     	;# 
  2544  068C                     	;# 
  2545  068D                     	;# 
  2546  068E                     	;# 
  2547  068F                     	;# 
  2548  0690                     	;# 
  2549  0691                     	;# 
  2550  0692                     	;# 
  2551  0693                     	;# 
  2552  0694                     	;# 
  2553  070C                     	;# 
  2554  070D                     	;# 
  2555  070E                     	;# 
  2556  070F                     	;# 
  2557  0710                     	;# 
  2558  0711                     	;# 
  2559  0712                     	;# 
  2560  0713                     	;# 
  2561  0714                     	;# 
  2562  0716                     	;# 
  2563  0717                     	;# 
  2564  0718                     	;# 
  2565  0719                     	;# 
  2566  071A                     	;# 
  2567  071B                     	;# 
  2568  071C                     	;# 
  2569  071D                     	;# 
  2570  071E                     	;# 
  2571  0796                     	;# 
  2572  0797                     	;# 
  2573  0798                     	;# 
  2574  0799                     	;# 
  2575  079A                     	;# 
  2576  079B                     	;# 
  2577  080C                     	;# 
  2578  080D                     	;# 
  2579  080E                     	;# 
  2580  080F                     	;# 
  2581  0810                     	;# 
  2582  0811                     	;# 
  2583  0812                     	;# 
  2584  0813                     	;# 
  2585  0814                     	;# 
  2586  081A                     	;# 
  2587  081B                     	;# 
  2588  081C                     	;# 
  2589  081D                     	;# 
  2590  081E                     	;# 
  2591  081F                     	;# 
  2592  088C                     	;# 
  2593  088D                     	;# 
  2594  088E                     	;# 
  2595  088F                     	;# 
  2596  0890                     	;# 
  2597  0891                     	;# 
  2598  0892                     	;# 
  2599  0893                     	;# 
  2600  0895                     	;# 
  2601  0896                     	;# 
  2602  0897                     	;# 
  2603  0898                     	;# 
  2604  0899                     	;# 
  2605  089A                     	;# 
  2606  089B                     	;# 
  2607  090C                     	;# 
  2608  090E                     	;# 
  2609  090F                     	;# 
  2610  091F                     	;# 
  2611  098F                     	;# 
  2612  098F                     	;# 
  2613  0990                     	;# 
  2614  0991                     	;# 
  2615  0992                     	;# 
  2616  0993                     	;# 
  2617  0994                     	;# 
  2618  0995                     	;# 
  2619  0996                     	;# 
  2620  0997                     	;# 
  2621  1E0F                     	;# 
  2622  1E10                     	;# 
  2623  1E11                     	;# 
  2624  1E12                     	;# 
  2625  1E13                     	;# 
  2626  1E14                     	;# 
  2627  1E15                     	;# 
  2628  1E16                     	;# 
  2629  1E17                     	;# 
  2630  1E18                     	;# 
  2631  1E19                     	;# 
  2632  1E1A                     	;# 
  2633  1E1B                     	;# 
  2634  1E1C                     	;# 
  2635  1E1D                     	;# 
  2636  1E1E                     	;# 
  2637  1E1F                     	;# 
  2638  1E20                     	;# 
  2639  1E21                     	;# 
  2640  1E22                     	;# 
  2641  1E23                     	;# 
  2642  1E24                     	;# 
  2643  1E25                     	;# 
  2644  1E26                     	;# 
  2645  1E27                     	;# 
  2646  1E28                     	;# 
  2647  1E29                     	;# 
  2648  1E2A                     	;# 
  2649  1E2B                     	;# 
  2650  1E2C                     	;# 
  2651  1E2D                     	;# 
  2652  1E2E                     	;# 
  2653  1E2F                     	;# 
  2654  1E30                     	;# 
  2655  1E31                     	;# 
  2656  1E32                     	;# 
  2657  1E33                     	;# 
  2658  1E34                     	;# 
  2659  1E35                     	;# 
  2660  1E36                     	;# 
  2661  1E37                     	;# 
  2662  1E8F                     	;# 
  2663  1E90                     	;# 
  2664  1E91                     	;# 
  2665  1E92                     	;# 
  2666  1E93                     	;# 
  2667  1E94                     	;# 
  2668  1E95                     	;# 
  2669  1E96                     	;# 
  2670  1E97                     	;# 
  2671  1E9C                     	;# 
  2672  1E9D                     	;# 
  2673  1E9E                     	;# 
  2674  1EA1                     	;# 
  2675  1EA2                     	;# 
  2676  1EA3                     	;# 
  2677  1EA4                     	;# 
  2678  1EA5                     	;# 
  2679  1EA9                     	;# 
  2680  1EAA                     	;# 
  2681  1EAB                     	;# 
  2682  1EAC                     	;# 
  2683  1EB1                     	;# 
  2684  1EB2                     	;# 
  2685  1EB3                     	;# 
  2686  1EB8                     	;# 
  2687  1EB9                     	;# 
  2688  1EBA                     	;# 
  2689  1EBB                     	;# 
  2690  1EBC                     	;# 
  2691  1EBD                     	;# 
  2692  1EBE                     	;# 
  2693  1EC3                     	;# 
  2694  1EC5                     	;# 
  2695  1EC6                     	;# 
  2696  1EC7                     	;# 
  2697  1EC8                     	;# 
  2698  1EC9                     	;# 
  2699  1ECA                     	;# 
  2700  1ECB                     	;# 
  2701  1ECC                     	;# 
  2702  1F10                     	;# 
  2703  1F11                     	;# 
  2704  1F12                     	;# 
  2705  1F13                     	;# 
  2706  1F14                     	;# 
  2707  1F15                     	;# 
  2708  1F16                     	;# 
  2709  1F17                     	;# 
  2710  1F18                     	;# 
  2711  1F19                     	;# 
  2712  1F1A                     	;# 
  2713  1F1B                     	;# 
  2714  1F1C                     	;# 
  2715  1F1D                     	;# 
  2716  1F1E                     	;# 
  2717  1F1F                     	;# 
  2718  1F20                     	;# 
  2719  1F21                     	;# 
  2720  1F22                     	;# 
  2721  1F23                     	;# 
  2722  1F24                     	;# 
  2723  1F25                     	;# 
  2724  1F26                     	;# 
  2725  1F27                     	;# 
  2726  1F28                     	;# 
  2727  1F29                     	;# 
  2728  1F2A                     	;# 
  2729  1F2B                     	;# 
  2730  1F2C                     	;# 
  2731  1F2D                     	;# 
  2732  1F2E                     	;# 
  2733  1F2F                     	;# 
  2734  1F30                     	;# 
  2735  1F31                     	;# 
  2736  1F32                     	;# 
  2737  1F38                     	;# 
  2738  1F39                     	;# 
  2739  1F3A                     	;# 
  2740  1F3B                     	;# 
  2741  1F3C                     	;# 
  2742  1F3D                     	;# 
  2743  1F3E                     	;# 
  2744  1F3F                     	;# 
  2745  1F40                     	;# 
  2746  1F41                     	;# 
  2747  1F43                     	;# 
  2748  1F44                     	;# 
  2749  1F45                     	;# 
  2750  1F46                     	;# 
  2751  1F47                     	;# 
  2752  1F48                     	;# 
  2753  1F49                     	;# 
  2754  1F4A                     	;# 
  2755  1F4B                     	;# 
  2756  1F4C                     	;# 
  2757  1F4E                     	;# 
  2758  1F4F                     	;# 
  2759  1F50                     	;# 
  2760  1F51                     	;# 
  2761  1F52                     	;# 
  2762  1F53                     	;# 
  2763  1F54                     	;# 
  2764  1F55                     	;# 
  2765  1F56                     	;# 
  2766  1F57                     	;# 
  2767  1F59                     	;# 
  2768  1F5A                     	;# 
  2769  1F5B                     	;# 
  2770  1F5C                     	;# 
  2771  1F5D                     	;# 
  2772  1F61                     	;# 
  2773  1F62                     	;# 
  2774  1F64                     	;# 
  2775  1F65                     	;# 
  2776  1F66                     	;# 
  2777  1F67                     	;# 
  2778  1F68                     	;# 
  2779  1F69                     	;# 
  2780  1F6A                     	;# 
  2781  1F6B                     	;# 
  2782  1F6C                     	;# 
  2783  1F6D                     	;# 
  2784  1FE4                     	;# 
  2785  1FE5                     	;# 
  2786  1FE6                     	;# 
  2787  1FE7                     	;# 
  2788  1FE8                     	;# 
  2789  1FE9                     	;# 
  2790  1FEA                     	;# 
  2791  1FEB                     	;# 
  2792  1FED                     	;# 
  2793  1FEE                     	;# 
  2794  1FEF                     	;# 
  2795                           
  2796                           	psect	idataBANK1
  2797  0000'                    __pidataBANK1:
  2798                           
  2799                           ;initializer for main@F12174
  2800  0000' 3420               	retlw	32
  2801  0001' 3420               	retlw	32
  2802  0002' 3420               	retlw	32
  2803  0003' 3420               	retlw	32
  2804  0004' 3420               	retlw	32
  2805  0005' 3420               	retlw	32
  2806  0006' 3420               	retlw	32
  2807  0007' 3420               	retlw	32
  2808  0008' 3420               	retlw	32
  2809  0009' 3420               	retlw	32
  2810  000A' 3420               	retlw	32
  2811  000B' 34BA               	retlw	186
  2812  000C' 3443               	retlw	67
  2813  000D' 3400               	retlw	0
  2814                           
  2815                           ;initializer for main@F12179
  2816  000E' 3420               	retlw	32
  2817  000F' 3420               	retlw	32
  2818  0010' 3420               	retlw	32
  2819  0011' 3420               	retlw	32
  2820  0012' 3420               	retlw	32
  2821  0013' 3420               	retlw	32
  2822  0014' 3420               	retlw	32
  2823  0015' 3420               	retlw	32
  2824  0016' 3420               	retlw	32
  2825  0017' 3420               	retlw	32
  2826  0018' 3420               	retlw	32
  2827  0019' 3425               	retlw	37
  2828  001A' 3400               	retlw	0
  2829                           
  2830                           ;initializer for main@F12177
  2831  001B' 3457               	retlw	87
  2832  001C' 3461               	retlw	97
  2833  001D' 3474               	retlw	116
  2834  001E' 3465               	retlw	101
  2835  001F' 3472               	retlw	114
  2836  0020' 3420               	retlw	32
  2837  0021' 344C               	retlw	76
  2838  0022' 3465               	retlw	101
  2839  0023' 3476               	retlw	118
  2840  0024' 3465               	retlw	101
  2841  0025' 346C               	retlw	108
  2842  0026' 343A               	retlw	58
  2843  0027' 3400               	retlw	0
  2844                           
  2845                           ;initializer for main@F12172
  2846  0028' 3454               	retlw	84
  2847  0029' 3465               	retlw	101
  2848  002A' 346D               	retlw	109
  2849  002B' 3470               	retlw	112
  2850  002C' 3465               	retlw	101
  2851  002D' 3472               	retlw	114
  2852  002E' 3461               	retlw	97
  2853  002F' 3474               	retlw	116
  2854  0030' 3475               	retlw	117
  2855  0031' 3472               	retlw	114
  2856  0032' 3465               	retlw	101
  2857  0033' 343A               	retlw	58
  2858  0034' 3400               	retlw	0
  2859                           
  2860                           	psect	idataBANK2
  2861  0000'                    __pidataBANK2:
  2862                           
  2863                           ;initializer for main@F12169
  2864  0000' 3453               	retlw	83
  2865  0001' 3433               	retlw	51
  2866  0002' 3420               	retlw	32
  2867  0003' 3466               	retlw	102
  2868  0004' 346F               	retlw	111
  2869  0005' 3472               	retlw	114
  2870  0006' 3420               	retlw	32
  2871  0007' 3457               	retlw	87
  2872  0008' 3461               	retlw	97
  2873  0009' 3474               	retlw	116
  2874  000A' 3465               	retlw	101
  2875  000B' 3472               	retlw	114
  2876  000C' 3420               	retlw	32
  2877  000D' 344C               	retlw	76
  2878  000E' 3476               	retlw	118
  2879  000F' 346C               	retlw	108
  2880  0010' 3400               	retlw	0
  2881                           
  2882                           ;initializer for main@F12167
  2883  0011' 3450               	retlw	80
  2884  0012' 3472               	retlw	114
  2885  0013' 3465               	retlw	101
  2886  0014' 3473               	retlw	115
  2887  0015' 3473               	retlw	115
  2888  0016' 3453               	retlw	83
  2889  0017' 3432               	retlw	50
  2890  0018' 3420               	retlw	32
  2891  0019' 3466               	retlw	102
  2892  001A' 346F               	retlw	111
  2893  001B' 3472               	retlw	114
  2894  001C' 3420               	retlw	32
  2895  001D' 3454               	retlw	84
  2896  001E' 3465               	retlw	101
  2897  001F' 346D               	retlw	109
  2898  0020' 3470               	retlw	112
  2899  0021' 3400               	retlw	0
  2900  000F                     _PORTDbits	set	15
  2901  0010                     _PORTEbits	set	16
  2902  0015                     _TRISE	set	21
  2903  0014                     _TRISD	set	20
  2904  0013                     _TRISC	set	19
  2905  0012                     _TRISB	set	18
  2906  0011                     _TRISA	set	17
  2907  000C                     _PORTA	set	12
  2908  000D                     _PORTBbits	set	13
  2909  008C                     _ADRESL	set	140
  2910  008D                     _ADRESH	set	141
  2911  0093                     _ADCON0bits	set	147
  2912  009E                     _ADPCH	set	158
  2913  0093                     _ADCON0	set	147
  2914  009D                     _ADACQ	set	157
  2915  0098                     _ADCLK	set	152
  2916  009A                     _ADREF	set	154
  2917  1F64                     _ANSELE	set	8036
  2918  1F59                     _ANSELD	set	8025
  2919  1F4E                     _ANSELC	set	8014
  2920  1F43                     _ANSELB	set	8003
  2921  1F38                     _ANSELA	set	7992
  2922                           
  2923                           	psect	cinit
  2924  0000'                    start_initialization:	
  2925                           ; #config settings
  2926                           
  2927  0000'                    __initialization:
  2928                           
  2929                           ; Initialize objects allocated to BANK1
  2930  0000' 3000'              	movlw	low __pidataBANK1
  2931  0001' 0084               	movwf	4
  2932  0002' 3000'              	movlw	(high __pidataBANK1)| (0+128)
  2933  0003' 0085               	movwf	5
  2934  0004' 3000'              	movlw	low __pdataBANK1
  2935  0005' 0086               	movwf	6
  2936  0006' 3000'              	movlw	high __pdataBANK1
  2937  0007' 0087               	movwf	7
  2938  0008' 3035               	movlw	53
  2939  0009' 3180' 2000' 3180'  	fcall	init_ram
  2940                           
  2941                           ; Initialize objects allocated to BANK2
  2942  000C' 3000'              	movlw	low __pidataBANK2
  2943  000D' 0084               	movwf	4
  2944  000E' 3000'              	movlw	(high __pidataBANK2)| (0+128)
  2945  000F' 0085               	movwf	5
  2946  0010' 3000'              	movlw	low __pdataBANK2
  2947  0011' 0086               	movwf	6
  2948  0012' 3000'              	movlw	high __pdataBANK2
  2949  0013' 0087               	movwf	7
  2950  0014' 3022               	movlw	34
  2951  0015' 3180' 2000' 3180'  	fcall	init_ram
  2952  0018'                    end_of_initialization:	
  2953                           ;End of C runtime variable initialization code
  2954                           
  2955  0018'                    __end_of__initialization:
  2956  0018' 0140               	movlb	0
  2957  0019' 3180' 2800'        	ljmp	_main	;jump to C main() function
  2958                           
  2959                           	psect	dataBANK1
  2960  0000'                    __pdataBANK1:
  2961  0000'                    main@F12174:
  2962  0000'                    	ds	14
  2963  000E'                    main@F12179:
  2964  000E'                    	ds	13
  2965  001B'                    main@F12177:
  2966  001B'                    	ds	13
  2967  0028'                    main@F12172:
  2968  0028'                    	ds	13
  2969                           
  2970                           	psect	dataBANK2
  2971  0000'                    __pdataBANK2:
  2972  0000'                    main@F12169:
  2973  0000'                    	ds	17
  2974  0011'                    main@F12167:
  2975  0011'                    	ds	17
  2976                           
  2977                           	psect	inittext
  2978  0000'                    init_ram:
  2979  0000' 00FE               	movwf	btemp
  2980  0001'                    initloop:
  2981  0001' 0012               	moviw fsr0++
  2982  0002' 001E               	movwi fsr1++
  2983  0003' 0BFE               	decfsz	btemp,f
  2984  0004' 2800'              	goto	initloop
  2985  0005' 3400               	retlw	0
  2986                           
  2987                           	psect	cstackBANK1
  2988  0000'                    __pcstackBANK1:
  2989  0000'                    main@message5:
  2990                           
  2991                           ; 13 bytes @ 0x0
  2992  0000'                    	ds	13
  2993  000D'                    main@message6:
  2994                           
  2995                           ; 13 bytes @ 0xD
  2996  000D'                    	ds	13
  2997                           
  2998                           	psect	cstackCOMMON
  2999  0000'                    __pcstackCOMMON:
  3000  0000'                    ?_initSysPins:
  3001  0000'                    ??_initSysPins:	
  3002                           ; 1 bytes @ 0x0
  3003                           
  3004  0000'                    ?_initLCD:	
  3005                           ; 1 bytes @ 0x0
  3006                           
  3007  0000'                    ?_lcdWriteDspData:	
  3008                           ; 1 bytes @ 0x0
  3009                           
  3010  0000'                    ?_dspTaskT_Disp7Seg:	
  3011                           ; 1 bytes @ 0x0
  3012                           
  3013  0000'                    ?_dspTaskW_OnLCD:	
  3014                           ; 1 bytes @ 0x0
  3015                           
  3016  0000'                    ?_seg_DispAll:	
  3017                           ; 1 bytes @ 0x0
  3018                           
  3019  0000'                    ??_seg_DispAll:	
  3020                           ; 1 bytes @ 0x0
  3021                           
  3022  0000'                    ?_lcdWriteCtrlWord:	
  3023                           ; 1 bytes @ 0x0
  3024                           
  3025  0000'                    ?_lcdCtrl_FunctionSet:	
  3026                           ; 1 bytes @ 0x0
  3027                           
  3028  0000'                    ?_lcdCtrl_SetEntryMode:	
  3029                           ; 1 bytes @ 0x0
  3030                           
  3031  0000'                    ?_lcdCtrl_ClearDisplay:	
  3032                           ; 1 bytes @ 0x0
  3033                           
  3034  0000'                    ?_lcdWriteNibble:	
  3035                           ; 1 bytes @ 0x0
  3036                           
  3037  0000'                    ??_lcdWriteNibble:	
  3038                           ; 1 bytes @ 0x0
  3039                           
  3040  0000'                    ?_initADC:	
  3041                           ; 1 bytes @ 0x0
  3042                           
  3043  0000'                    ??_initADC:	
  3044                           ; 1 bytes @ 0x0
  3045                           
  3046  0000'                    ?_main:	
  3047                           ; 1 bytes @ 0x0
  3048                           
  3049  0000'                    ?_adc_GetTConversion:	
  3050                           ; 1 bytes @ 0x0
  3051                           
  3052  0000'                    ?_adc_GetWConversion:	
  3053                           ; 2 bytes @ 0x0
  3054                           
  3055  0000'                    ?___wmul:	
  3056                           ; 2 bytes @ 0x0
  3057                           
  3058  0000'                    ?___awdiv:	
  3059                           ; 2 bytes @ 0x0
  3060                           
  3061  0000'                    _seg_DispAll$0:	
  3062                           ; 2 bytes @ 0x0
  3063                           
  3064  0000'                    ___wmul@multiplier:	
  3065                           ; 2 bytes @ 0x0
  3066                           
  3067  0000'                    ___awdiv@divisor:	
  3068                           ; 2 bytes @ 0x0
  3069                           
  3070                           
  3071                           ; 2 bytes @ 0x0
  3072  0000'                    	ds	2
  3073  0002'                    ??_adc_GetTConversion:
  3074  0002'                    ??_adc_GetWConversion:	
  3075                           ; 1 bytes @ 0x2
  3076                           
  3077  0002'                    lcdWriteNibble@nibble:	
  3078                           ; 1 bytes @ 0x2
  3079                           
  3080  0002'                    adc_GetTConversion@result:	
  3081                           ; 1 bytes @ 0x2
  3082                           
  3083  0002'                    adc_GetWConversion@result:	
  3084                           ; 2 bytes @ 0x2
  3085                           
  3086  0002'                    ___wmul@multiplicand:	
  3087                           ; 2 bytes @ 0x2
  3088                           
  3089  0002'                    ___awdiv@dividend:	
  3090                           ; 2 bytes @ 0x2
  3091                           
  3092                           
  3093                           ; 2 bytes @ 0x2
  3094  0002'                    	ds	1
  3095  0003'                    ??_lcdWriteDspData:
  3096  0003'                    ??_lcdWriteCtrlWord:	
  3097                           ; 1 bytes @ 0x3
  3098                           
  3099                           
  3100                           ; 1 bytes @ 0x3
  3101  0003'                    	ds	1
  3102  0004'                    ??___wmul:
  3103  0004'                    ??___awdiv:	
  3104                           ; 1 bytes @ 0x4
  3105                           
  3106  0004'                    lcdWriteCtrlWord@upper_nibble:	
  3107                           ; 1 bytes @ 0x4
  3108                           
  3109  0004'                    lcdWriteDspData@upper_nibble:	
  3110                           ; 1 bytes @ 0x4
  3111                           
  3112  0004'                    ___wmul@product:	
  3113                           ; 1 bytes @ 0x4
  3114                           
  3115                           
  3116                           ; 2 bytes @ 0x4
  3117  0004'                    	ds	1
  3118  0005'                    lcdWriteCtrlWord@lower_nibble:
  3119  0005'                    lcdWriteDspData@lower_nibble:	
  3120                           ; 1 bytes @ 0x5
  3121                           
  3122  0005'                    ___awdiv@counter:	
  3123                           ; 1 bytes @ 0x5
  3124                           
  3125                           
  3126                           ; 1 bytes @ 0x5
  3127  0005'                    	ds	1
  3128  0006'                    ?___lwdiv:
  3129  0006'                    lcdWriteCtrlWord@x:	
  3130                           ; 2 bytes @ 0x6
  3131                           
  3132  0006'                    lcdWriteDspData@x:	
  3133                           ; 1 bytes @ 0x6
  3134                           
  3135  0006'                    ___awdiv@sign:	
  3136                           ; 1 bytes @ 0x6
  3137                           
  3138  0006'                    ___lwdiv@divisor:	
  3139                           ; 1 bytes @ 0x6
  3140                           
  3141                           
  3142                           ; 2 bytes @ 0x6
  3143  0006'                    	ds	1
  3144  0007'                    ?_lcdCtrl_SetPos:
  3145  0007'                    ??_lcdCtrl_FunctionSet:	
  3146                           ; 1 bytes @ 0x7
  3147                           
  3148  0007'                    ?_lcdCtrl_OnOffDisplay:	
  3149                           ; 1 bytes @ 0x7
  3150                           
  3151  0007'                    ??_lcdCtrl_SetEntryMode:	
  3152                           ; 1 bytes @ 0x7
  3153                           
  3154  0007'                    ??_lcdCtrl_ClearDisplay:	
  3155                           ; 1 bytes @ 0x7
  3156                           
  3157  0007'                    lcdCtrl_SetPos@col:	
  3158                           ; 1 bytes @ 0x7
  3159                           
  3160  0007'                    lcdCtrl_OnOffDisplay@cursor_state:	
  3161                           ; 1 bytes @ 0x7
  3162                           
  3163  0007'                    ___awdiv@quotient:	
  3164                           ; 1 bytes @ 0x7
  3165                           
  3166                           
  3167                           ; 2 bytes @ 0x7
  3168  0007'                    	ds	1
  3169  0008'                    ??_lcdCtrl_SetPos:
  3170  0008'                    ??_lcdCtrl_OnOffDisplay:	
  3171                           ; 1 bytes @ 0x8
  3172                           
  3173  0008'                    lcdCtrl_SetPos@row:	
  3174                           ; 1 bytes @ 0x8
  3175                           
  3176  0008'                    ___lwdiv@dividend:	
  3177                           ; 1 bytes @ 0x8
  3178                           
  3179                           
  3180                           ; 2 bytes @ 0x8
  3181  0008'                    	ds	1
  3182  0009'                    ?___awmod:
  3183  0009'                    lcdCtrl_SetPos@ramAddr:	
  3184                           ; 2 bytes @ 0x9
  3185                           
  3186  0009'                    lcdCtrl_OnOffDisplay@display_state:	
  3187                           ; 1 bytes @ 0x9
  3188                           
  3189  0009'                    ___awmod@divisor:	
  3190                           ; 1 bytes @ 0x9
  3191                           
  3192                           
  3193                           ; 2 bytes @ 0x9
  3194  0009'                    	ds	1
  3195  000A'                    ??___lwdiv:
  3196  000A'                    lcdCtrl_OnOffDisplay@pattern:	
  3197                           ; 1 bytes @ 0xA
  3198                           
  3199                           
  3200                           ; 1 bytes @ 0xA
  3201  000A'                    	ds	1
  3202  000B'                    ??_initLCD:
  3203  000B'                    ___awmod@dividend:	
  3204                           ; 1 bytes @ 0xB
  3205                           
  3206  000B'                    ___lwdiv@quotient:	
  3207                           ; 2 bytes @ 0xB
  3208                           
  3209                           
  3210                           ; 2 bytes @ 0xB
  3211  000B'                    	ds	2
  3212  000D'                    ??___awmod:
  3213  000D'                    ___lwdiv@counter:	
  3214                           ; 1 bytes @ 0xD
  3215                           
  3216                           
  3217                           ; 1 bytes @ 0xD
  3218  000D'                    	ds	1
  3219                           
  3220                           	psect	cstackBANK0
  3221  0000'                    __pcstackBANK0:
  3222  0000'                    ??_dspTaskT_Disp7Seg:
  3223  0000'                    ___awmod@counter:	
  3224                           ; 1 bytes @ 0x0
  3225                           
  3226                           
  3227                           ; 1 bytes @ 0x0
  3228  0000'                    	ds	1
  3229  0001'                    ___awmod@sign:
  3230                           
  3231                           ; 1 bytes @ 0x1
  3232  0001'                    	ds	1
  3233  0002'                    ??_dspTaskW_OnLCD:
  3234  0002'                    dspTaskT_Disp7Seg@temp:	
  3235                           ; 1 bytes @ 0x2
  3236                           
  3237                           
  3238                           ; 2 bytes @ 0x2
  3239  0002'                    	ds	2
  3240  0004'                    dspTaskT_Disp7Seg@count:
  3241  0004'                    dspTaskW_OnLCD@Wlvl:	
  3242                           ; 2 bytes @ 0x4
  3243                           
  3244                           
  3245                           ; 2 bytes @ 0x4
  3246  0004'                    	ds	2
  3247  0006'                    dspTaskW_OnLCD@dig0:
  3248                           
  3249                           ; 1 bytes @ 0x6
  3250  0006'                    	ds	1
  3251  0007'                    dspTaskW_OnLCD@dig1:
  3252                           
  3253                           ; 1 bytes @ 0x7
  3254  0007'                    	ds	1
  3255  0008'                    dspTaskW_OnLCD@dig2:
  3256                           
  3257                           ; 1 bytes @ 0x8
  3258  0008'                    	ds	1
  3259  0009'                    dspTaskW_OnLCD@dig3:
  3260                           
  3261                           ; 1 bytes @ 0x9
  3262  0009'                    	ds	1
  3263  000A'                    dspTaskW_OnLCD@count:
  3264                           
  3265                           ; 2 bytes @ 0xA
  3266  000A'                    	ds	2
  3267  000C'                    ??_main:
  3268                           
  3269                           ; 1 bytes @ 0xC
  3270  000C'                    	ds	1
  3271  000D'                    main@message1:
  3272                           
  3273                           ; 17 bytes @ 0xD
  3274  000D'                    	ds	17
  3275  001E'                    main@message2:
  3276                           
  3277                           ; 17 bytes @ 0x1E
  3278  001E'                    	ds	17
  3279  002F'                    main@message4:
  3280                           
  3281                           ; 14 bytes @ 0x2F
  3282  002F'                    	ds	14
  3283  003D'                    main@message3:
  3284                           
  3285                           ; 13 bytes @ 0x3D
  3286  003D'                    	ds	13
  3287  004A'                    main@i:
  3288                           
  3289                           ; 2 bytes @ 0x4A
  3290  004A'                    	ds	2
  3291  004C'                    main@i_183:
  3292                           
  3293                           ; 2 bytes @ 0x4C
  3294  004C'                    	ds	2
  3295  004E'                    main@i_188:
  3296                           
  3297                           ; 2 bytes @ 0x4E
  3298  004E'                    	ds	2
  3299                           
  3300                           	psect	maintext
  3301  0000'                    __pmaintext:	
  3302 ;;
  3303 ;;Main: autosize = 0, tempsize = 1, incstack = 0, save=0
  3304 ;;
  3305 ;; *************** function _main *****************
  3306 ;; Defined at:
  3307 ;;		line 24 in file "main.c"
  3308 ;; Parameters:    Size  Location     Type
  3309 ;;		None
  3310 ;; Auto vars:     Size  Location     Type
  3311 ;;  message6       13   13[BANK1 ] unsigned char [13]
  3312 ;;  message5       13    0[BANK1 ] unsigned char [13]
  3313 ;;  i               2   78[BANK0 ] unsigned int 
  3314 ;;  message4       14   47[BANK0 ] unsigned char [14]
  3315 ;;  message3       13   61[BANK0 ] unsigned char [13]
  3316 ;;  i               2   76[BANK0 ] unsigned int 
  3317 ;;  message2       17   30[BANK0 ] unsigned char [17]
  3318 ;;  message1       17   13[BANK0 ] unsigned char [17]
  3319 ;;  i               2   74[BANK0 ] unsigned int 
  3320 ;;  temp            2    0        unsigned int 
  3321 ;;  result          2    0        unsigned int 
  3322 ;; Return value:  Size  Location     Type
  3323 ;;                  1    wreg      void 
  3324 ;; Registers used:
  3325 ;;		wreg, fsr0l, fsr0h, fsr1l, fsr1h, fsr1l, fsr1h, status,2, status,0, pclath, cstack
  3326 ;; Tracked objects:
  3327 ;;		On entry : B3F/0
  3328 ;;		On exit  : 0/0
  3329 ;;		Unchanged: 0/0
  3330 ;; Data sizes:     COMMON   BANK0   BANK1   BANK2   BANK3   BANK4   BANK5   BANK6   BANK7   BANK8   BANK9  BANK10  BANK1
      +1  BANK12  BANK13  BANK14  BANK15  BANK16  BANK17  BANK18  BANK19  BANK20  BANK21  BANK22  BANK23  BANK24  BANK25  BANK2
      +6  BANK27  BANK28  BANK29  BANK30  BANK31  BANK32  BANK33  BANK34  BANK35  BANK36  BANK37  BANK38  BANK39  BANK40  BANK4
      +1  BANK42  BANK43  BANK44  BANK45  BANK46  BANK47  BANK48  BANK49  BANK50
  3331 ;;      Params:         0       0       0       0       0       0       0       0       0       0       0       0       
      +0       0       0       0       0       0       0       0       0       0       0       0       0       0       0       
      +0       0       0       0       0       0       0       0       0       0       0       0       0       0       0       
      +0       0       0       0       0       0       0       0       0       0
  3332 ;;      Locals:         0      67      26       0       0       0       0       0       0       0       0       0       
      +0       0       0       0       0       0       0       0       0       0       0       0       0       0       0       
      +0       0       0       0       0       0       0       0       0       0       0       0       0       0       0       
      +0       0       0       0       0       0       0       0       0       0
  3333 ;;      Temps:          0       1       0       0       0       0       0       0       0       0       0       0       
      +0       0       0       0       0       0       0       0       0       0       0       0       0       0       0       
      +0       0       0       0       0       0       0       0       0       0       0       0       0       0       0       
      +0       0       0       0       0       0       0       0       0       0
  3334 ;;      Totals:         0      68      26       0       0       0       0       0       0       0       0       0       
      +0       0       0       0       0       0       0       0       0       0       0       0       0       0       0       
      +0       0       0       0       0       0       0       0       0       0       0       0       0       0       0       
      +0       0       0       0       0       0       0       0       0       0
  3335 ;;Total ram usage:       94 bytes
  3336 ;; Hardware stack levels required when called: 4
  3337 ;; This function calls:
  3338 ;;		_dspTaskT_Disp7Seg
  3339 ;;		_dspTaskW_OnLCD
  3340 ;;		_initADC
  3341 ;;		_initLCD
  3342 ;;		_initSysPins
  3343 ;;		_lcdCtrl_SetPos
  3344 ;;		_lcdWriteDspData
  3345 ;; This function is called by:
  3346 ;;		Startup code after reset
  3347 ;; This function uses a non-reentrant model
  3348 ;;
  3349                           
  3350  0000'                    _main:	
  3351                           ;psect for function _main
  3352                           
  3353  0000'                    l1389:	
  3354                           ;incstack = 0
  3355                           ; Regs used in _main: [allreg]
  3356                           
  3357                           
  3358                           ;main.c: 26:     unsigned int result;;main.c: 27:     unsigned int temp;;main.c: 28:    
      +                           initSysPins();
  3359  0000' 3180' 2000' 3180'  	fcall	_initSysPins
  3360                           
  3361                           ;main.c: 29:     initADC();
  3362  0003' 3180' 2000' 3180'  	fcall	_initADC
  3363  0006'                    l1391:
  3364                           
  3365                           ;main.c: 30:     char message1[] = "PressS2 for Temp";
  3366  0006' 3000'              	movlw	low main@F12167
  3367  0007' 0086               	movwf	6
  3368  0008' 3000'              	movlw	high main@F12167
  3369  0009' 0087               	movwf	7
  3370  000A' 3000'              	movlw	low main@message1
  3371  000B' 0084               	movwf	4
  3372  000C' 3000'              	movlw	high main@message1
  3373  000D' 0085               	movwf	5
  3374  000E' 3011               	movlw	17
  3375  000F' 0140               	movlb	0	; select bank0
  3376  0010' 008C'              	movwf	??_main
  3377  0011'                    u970:
  3378  0011' 0016               	moviw fsr1++
  3379  0012' 001A               	movwi fsr0++
  3380  0013' 0B8C'              	decfsz	??_main,f
  3381  0014' 2800'              	goto	u970
  3382  0015'                    l1393:
  3383                           
  3384                           ;main.c: 31:     char message2[] = "S3 for Water Lvl";
  3385  0015' 3000'              	movlw	low main@F12169
  3386  0016' 0086               	movwf	6
  3387  0017' 3000'              	movlw	high main@F12169
  3388  0018' 0087               	movwf	7
  3389  0019' 3000'              	movlw	low main@message2
  3390  001A' 0084               	movwf	4
  3391  001B' 3000'              	movlw	high main@message2
  3392  001C' 0085               	movwf	5
  3393  001D' 3011               	movlw	17
  3394  001E' 008C'              	movwf	??_main
  3395  001F'                    u980:
  3396  001F' 0016               	moviw fsr1++
  3397  0020' 001A               	movwi fsr0++
  3398  0021' 0B8C'              	decfsz	??_main,f
  3399  0022' 2800'              	goto	u980
  3400                           
  3401                           ;main.c: 32:     unsigned int i;;main.c: 33:     initLCD();
  3402  0023' 3180' 2000' 3180'  	fcall	_initLCD
  3403                           
  3404                           ;main.c: 35:     lcdCtrl_SetPos(1, 1);
  3405  0026' 0187'              	clrf	lcdCtrl_SetPos@col
  3406  0027' 0A87'              	incf	lcdCtrl_SetPos@col,f
  3407  0028' 3001               	movlw	1
  3408  0029' 3180' 2000' 3180'  	fcall	_lcdCtrl_SetPos
  3409  002C'                    l1395:
  3410                           
  3411                           ;main.c: 36:     for(i = 0; message1[i]!=0; i++) {
  3412  002C' 0140               	movlb	0	; select bank0
  3413  002D' 01CA'              	clrf	main@i
  3414  002E' 01CB'              	clrf	main@i+1
  3415  002F' 2800'              	goto	l1401
  3416  0030'                    l1397:
  3417                           
  3418                           ;main.c: 37:     lcdWriteDspData(message1[i]);
  3419  0030' 084A'              	movf	main@i,w
  3420  0031' 3E00'              	addlw	(low (main@message1| 0))& (0+255)
  3421  0032' 0086               	movwf	6
  3422  0033' 0187               	clrf	7
  3423  0034' 0801               	movf	1,w
  3424  0035' 3180' 2000' 3180'  	fcall	_lcdWriteDspData
  3425  0038'                    l1399:
  3426                           
  3427                           ;main.c: 38:     }
  3428  0038' 3001               	movlw	1
  3429  0039' 0140               	movlb	0	; select bank0
  3430  003A' 07CA'              	addwf	main@i,f
  3431  003B' 3000               	movlw	0
  3432  003C' 3DCB'              	addwfc	main@i+1,f
  3433  003D'                    l1401:
  3434  003D' 084A'              	movf	main@i,w
  3435  003E' 3E00'              	addlw	(low (main@message1| 0))& (0+255)
  3436  003F' 0086               	movwf	6
  3437  0040' 0187               	clrf	7
  3438  0041' 0801               	movf	1,w
  3439  0042' 1D03               	btfss	3,2
  3440  0043' 2800'              	goto	u991
  3441  0044' 2800'              	goto	u990
  3442  0045'                    u991:
  3443  0045' 2800'              	goto	l1397
  3444  0046'                    u990:
  3445  0046'                    l1403:
  3446                           
  3447                           ;main.c: 40:     lcdCtrl_SetPos(2, 1);
  3448  0046' 0187'              	clrf	lcdCtrl_SetPos@col
  3449  0047' 0A87'              	incf	lcdCtrl_SetPos@col,f
  3450  0048' 3002               	movlw	2
  3451  0049' 3180' 2000' 3180'  	fcall	_lcdCtrl_SetPos
  3452  004C'                    l1405:
  3453                           
  3454                           ;main.c: 41:     for(i = 0; message2[i]!=0; i++) {
  3455  004C' 0140               	movlb	0	; select bank0
  3456  004D' 01CA'              	clrf	main@i
  3457  004E' 01CB'              	clrf	main@i+1
  3458  004F' 2800'              	goto	l1411
  3459  0050'                    l1407:
  3460                           
  3461                           ;main.c: 42:     lcdWriteDspData(message2[i]);
  3462  0050' 084A'              	movf	main@i,w
  3463  0051' 3E00'              	addlw	(low (main@message2| 0))& (0+255)
  3464  0052' 0086               	movwf	6
  3465  0053' 0187               	clrf	7
  3466  0054' 0801               	movf	1,w
  3467  0055' 3180' 2000' 3180'  	fcall	_lcdWriteDspData
  3468  0058'                    l1409:
  3469                           
  3470                           ;main.c: 43:     }
  3471  0058' 3001               	movlw	1
  3472  0059' 0140               	movlb	0	; select bank0
  3473  005A' 07CA'              	addwf	main@i,f
  3474  005B' 3000               	movlw	0
  3475  005C' 3DCB'              	addwfc	main@i+1,f
  3476  005D'                    l1411:
  3477  005D' 084A'              	movf	main@i,w
  3478  005E' 3E00'              	addlw	(low (main@message2| 0))& (0+255)
  3479  005F' 0086               	movwf	6
  3480  0060' 0187               	clrf	7
  3481  0061' 0801               	movf	1,w
  3482  0062' 1D03               	btfss	3,2
  3483  0063' 2800'              	goto	u1001
  3484  0064' 2800'              	goto	u1000
  3485  0065'                    u1001:
  3486  0065' 2800'              	goto	l1407
  3487  0066'                    u1000:
  3488  0066'                    l86:	
  3489                           ;main.c: 44:     while(1)
  3490                           
  3491                           
  3492                           ;main.c: 45:     {;main.c: 48:         if(PORTBbits.RB1==0){
  3493  0066' 188D               	btfsc	13,1	;volatile
  3494  0067' 2800'              	goto	u1011
  3495  0068' 2800'              	goto	u1010
  3496  0069'                    u1011:
  3497  0069' 2800'              	goto	l87
  3498  006A'                    u1010:
  3499  006A'                    l1413:
  3500                           
  3501                           ;main.c: 49:                 char message3[] = "Temperature:";
  3502  006A' 3000'              	movlw	low main@F12172
  3503  006B' 0086               	movwf	6
  3504  006C' 3000'              	movlw	high main@F12172
  3505  006D' 0087               	movwf	7
  3506  006E' 3000'              	movlw	low main@message3
  3507  006F' 0084               	movwf	4
  3508  0070' 3000'              	movlw	high main@message3
  3509  0071' 0085               	movwf	5
  3510  0072' 300D               	movlw	13
  3511  0073' 008C'              	movwf	??_main
  3512  0074'                    u1020:
  3513  0074' 0016               	moviw fsr1++
  3514  0075' 001A               	movwi fsr0++
  3515  0076' 0B8C'              	decfsz	??_main,f
  3516  0077' 2800'              	goto	u1020
  3517                           
  3518                           ;main.c: 50:                 char message4[] = "           ºC";
  3519  0078' 3000'              	movlw	low main@F12174
  3520  0079' 0086               	movwf	6
  3521  007A' 3000'              	movlw	high main@F12174
  3522  007B' 0087               	movwf	7
  3523  007C' 3000'              	movlw	low main@message4
  3524  007D' 0084               	movwf	4
  3525  007E' 3000'              	movlw	high main@message4
  3526  007F' 0085               	movwf	5
  3527  0080' 300E               	movlw	14
  3528  0081' 008C'              	movwf	??_main
  3529  0082'                    u1030:
  3530  0082' 0016               	moviw fsr1++
  3531  0083' 001A               	movwi fsr0++
  3532  0084' 0B8C'              	decfsz	??_main,f
  3533  0085' 2800'              	goto	u1030
  3534  0086'                    l1415:
  3535                           
  3536                           ;main.c: 51:                 unsigned int i;;main.c: 52:                 initSysPins();
  3537  0086' 3180' 2000' 3180'  	fcall	_initSysPins
  3538  0089'                    l1417:
  3539                           
  3540                           ;main.c: 53:                 initLCD();
  3541  0089' 3180' 2000' 3180'  	fcall	_initLCD
  3542  008C'                    l1419:
  3543                           
  3544                           ;main.c: 54:                 lcdCtrl_SetPos(1, 1);
  3545  008C' 0187'              	clrf	lcdCtrl_SetPos@col
  3546  008D' 0A87'              	incf	lcdCtrl_SetPos@col,f
  3547  008E' 3001               	movlw	1
  3548  008F' 3180' 2000' 3180'  	fcall	_lcdCtrl_SetPos
  3549  0092'                    l1421:
  3550                           
  3551                           ;main.c: 55:                 for(i = 0; message3[i]!=0; i++) {
  3552  0092' 0140               	movlb	0	; select bank0
  3553  0093' 01CC'              	clrf	main@i_183
  3554  0094' 01CD'              	clrf	main@i_183+1
  3555  0095' 2800'              	goto	l1427
  3556  0096'                    l1423:
  3557                           
  3558                           ;main.c: 56:                 lcdWriteDspData(message3[i]);
  3559  0096' 084C'              	movf	main@i_183,w
  3560  0097' 3E00'              	addlw	(low (main@message3| 0))& (0+255)
  3561  0098' 0086               	movwf	6
  3562  0099' 0187               	clrf	7
  3563  009A' 0801               	movf	1,w
  3564  009B' 3180' 2000' 3180'  	fcall	_lcdWriteDspData
  3565  009E'                    l1425:
  3566                           
  3567                           ;main.c: 57:                 }
  3568  009E' 3001               	movlw	1
  3569  009F' 0140               	movlb	0	; select bank0
  3570  00A0' 07CC'              	addwf	main@i_183,f
  3571  00A1' 3000               	movlw	0
  3572  00A2' 3DCD'              	addwfc	main@i_183+1,f
  3573  00A3'                    l1427:
  3574  00A3' 084C'              	movf	main@i_183,w
  3575  00A4' 3E00'              	addlw	(low (main@message3| 0))& (0+255)
  3576  00A5' 0086               	movwf	6
  3577  00A6' 0187               	clrf	7
  3578  00A7' 0801               	movf	1,w
  3579  00A8' 1D03               	btfss	3,2
  3580  00A9' 2800'              	goto	u1041
  3581  00AA' 2800'              	goto	u1040
  3582  00AB'                    u1041:
  3583  00AB' 2800'              	goto	l1423
  3584  00AC'                    u1040:
  3585  00AC'                    l1429:
  3586                           
  3587                           ;main.c: 58:                 lcdCtrl_SetPos(2, 1);
  3588  00AC' 0187'              	clrf	lcdCtrl_SetPos@col
  3589  00AD' 0A87'              	incf	lcdCtrl_SetPos@col,f
  3590  00AE' 3002               	movlw	2
  3591  00AF' 3180' 2000' 3180'  	fcall	_lcdCtrl_SetPos
  3592  00B2'                    l1431:
  3593                           
  3594                           ;main.c: 59:                 for(i = 0; message4[i]!=0; i++) {
  3595  00B2' 0140               	movlb	0	; select bank0
  3596  00B3' 01CC'              	clrf	main@i_183
  3597  00B4' 01CD'              	clrf	main@i_183+1
  3598  00B5' 2800'              	goto	l1437
  3599  00B6'                    l1433:
  3600                           
  3601                           ;main.c: 60:                 lcdWriteDspData(message4[i]);
  3602  00B6' 084C'              	movf	main@i_183,w
  3603  00B7' 3E00'              	addlw	(low (main@message4| 0))& (0+255)
  3604  00B8' 0086               	movwf	6
  3605  00B9' 0187               	clrf	7
  3606  00BA' 0801               	movf	1,w
  3607  00BB' 3180' 2000' 3180'  	fcall	_lcdWriteDspData
  3608  00BE'                    l1435:
  3609                           
  3610                           ;main.c: 61:                 }
  3611  00BE' 3001               	movlw	1
  3612  00BF' 0140               	movlb	0	; select bank0
  3613  00C0' 07CC'              	addwf	main@i_183,f
  3614  00C1' 3000               	movlw	0
  3615  00C2' 3DCD'              	addwfc	main@i_183+1,f
  3616  00C3'                    l1437:
  3617  00C3' 084C'              	movf	main@i_183,w
  3618  00C4' 3E00'              	addlw	(low (main@message4| 0))& (0+255)
  3619  00C5' 0086               	movwf	6
  3620  00C6' 0187               	clrf	7
  3621  00C7' 0801               	movf	1,w
  3622  00C8' 1D03               	btfss	3,2
  3623  00C9' 2800'              	goto	u1051
  3624  00CA' 2800'              	goto	u1050
  3625  00CB'                    u1051:
  3626  00CB' 2800'              	goto	l1433
  3627  00CC'                    u1050:
  3628  00CC'                    l1439:
  3629                           
  3630                           ;main.c: 62:                 PORTA = 0b00000000;
  3631  00CC' 018C               	clrf	12	;volatile
  3632  00CD'                    l1441:
  3633                           
  3634                           ;main.c: 65:                     dspTaskT_Disp7Seg();
  3635  00CD' 3180' 2000' 3180'  	fcall	_dspTaskT_Disp7Seg
  3636  00D0' 2800'              	goto	l1441
  3637  00D1'                    l87:	
  3638                           ;main.c: 68:             }
  3639                           
  3640                           
  3641                           ;main.c: 72:         if(PORTBbits.RB2==0){
  3642  00D1' 190D               	btfsc	13,2	;volatile
  3643  00D2' 2800'              	goto	u1061
  3644  00D3' 2800'              	goto	u1060
  3645  00D4'                    u1061:
  3646  00D4' 2800'              	goto	l86
  3647  00D5'                    u1060:
  3648  00D5'                    l1443:
  3649                           
  3650                           ;main.c: 73:             char message5[] = "Water Level:";
  3651  00D5' 3000'              	movlw	low main@F12177
  3652  00D6' 0086               	movwf	6
  3653  00D7' 3000'              	movlw	high main@F12177
  3654  00D8' 0087               	movwf	7
  3655  00D9' 3000'              	movlw	low main@message5
  3656  00DA' 0084               	movwf	4
  3657  00DB' 3000'              	movlw	high main@message5
  3658  00DC' 0085               	movwf	5
  3659  00DD' 300D               	movlw	13
  3660  00DE' 008C'              	movwf	??_main
  3661  00DF'                    u1070:
  3662  00DF' 0016               	moviw fsr1++
  3663  00E0' 001A               	movwi fsr0++
  3664  00E1' 0B8C'              	decfsz	??_main,f
  3665  00E2' 2800'              	goto	u1070
  3666                           
  3667                           ;main.c: 74:             char message6[] = "           %";
  3668  00E3' 3000'              	movlw	low main@F12179
  3669  00E4' 0086               	movwf	6
  3670  00E5' 3000'              	movlw	high main@F12179
  3671  00E6' 0087               	movwf	7
  3672  00E7' 3000'              	movlw	low main@message6
  3673  00E8' 0084               	movwf	4
  3674  00E9' 3000'              	movlw	high main@message6
  3675  00EA' 0085               	movwf	5
  3676  00EB' 300D               	movlw	13
  3677  00EC' 008C'              	movwf	??_main
  3678  00ED'                    u1080:
  3679  00ED' 0016               	moviw fsr1++
  3680  00EE' 001A               	movwi fsr0++
  3681  00EF' 0B8C'              	decfsz	??_main,f
  3682  00F0' 2800'              	goto	u1080
  3683  00F1'                    l1445:
  3684                           
  3685                           ;main.c: 75:             unsigned int i;;main.c: 76:             initSysPins();
  3686  00F1' 3180' 2000' 3180'  	fcall	_initSysPins
  3687  00F4'                    l1447:
  3688                           
  3689                           ;main.c: 77:             initLCD();
  3690  00F4' 3180' 2000' 3180'  	fcall	_initLCD
  3691  00F7'                    l1449:
  3692                           
  3693                           ;main.c: 78:             lcdCtrl_SetPos(1, 1);
  3694  00F7' 0187'              	clrf	lcdCtrl_SetPos@col
  3695  00F8' 0A87'              	incf	lcdCtrl_SetPos@col,f
  3696  00F9' 3001               	movlw	1
  3697  00FA' 3180' 2000' 3180'  	fcall	_lcdCtrl_SetPos
  3698  00FD'                    l1451:
  3699                           
  3700                           ;main.c: 79:             for(i = 0; message5[i]!=0; i++) {
  3701  00FD' 0140               	movlb	0	; select bank0
  3702  00FE' 01CE'              	clrf	main@i_188
  3703  00FF' 01CF'              	clrf	main@i_188+1
  3704  0100' 2800'              	goto	l1457
  3705  0101'                    l1453:
  3706                           
  3707                           ;main.c: 80:             lcdWriteDspData(message5[i]);
  3708  0101' 084E'              	movf	main@i_188,w
  3709  0102' 3E00'              	addlw	(low (main@message5| 0))& (0+255)
  3710  0103' 0086               	movwf	6
  3711  0104' 0187               	clrf	7
  3712  0105' 0801               	movf	1,w
  3713  0106' 3180' 2000' 3180'  	fcall	_lcdWriteDspData
  3714  0109'                    l1455:
  3715                           
  3716                           ;main.c: 81:             }
  3717  0109' 3001               	movlw	1
  3718  010A' 0140               	movlb	0	; select bank0
  3719  010B' 07CE'              	addwf	main@i_188,f
  3720  010C' 3000               	movlw	0
  3721  010D' 3DCF'              	addwfc	main@i_188+1,f
  3722  010E'                    l1457:
  3723  010E' 084E'              	movf	main@i_188,w
  3724  010F' 3E00'              	addlw	(low (main@message5| 0))& (0+255)
  3725  0110' 0086               	movwf	6
  3726  0111' 0187               	clrf	7
  3727  0112' 0801               	movf	1,w
  3728  0113' 1D03               	btfss	3,2
  3729  0114' 2800'              	goto	u1091
  3730  0115' 2800'              	goto	u1090
  3731  0116'                    u1091:
  3732  0116' 2800'              	goto	l1453
  3733  0117'                    u1090:
  3734  0117'                    l1459:
  3735                           
  3736                           ;main.c: 82:             lcdCtrl_SetPos(2, 1);
  3737  0117' 0187'              	clrf	lcdCtrl_SetPos@col
  3738  0118' 0A87'              	incf	lcdCtrl_SetPos@col,f
  3739  0119' 3002               	movlw	2
  3740  011A' 3180' 2000' 3180'  	fcall	_lcdCtrl_SetPos
  3741  011D'                    l1461:
  3742                           
  3743                           ;main.c: 83:             for(i = 0; message6[i]!=0; i++) {
  3744  011D' 0140               	movlb	0	; select bank0
  3745  011E' 01CE'              	clrf	main@i_188
  3746  011F' 01CF'              	clrf	main@i_188+1
  3747  0120' 2800'              	goto	l1467
  3748  0121'                    l1463:
  3749                           
  3750                           ;main.c: 84:             lcdWriteDspData(message6[i]);
  3751  0121' 084E'              	movf	main@i_188,w
  3752  0122' 3E00'              	addlw	(low (main@message6| 0))& (0+255)
  3753  0123' 0086               	movwf	6
  3754  0124' 0187               	clrf	7
  3755  0125' 0801               	movf	1,w
  3756  0126' 3180' 2000' 3180'  	fcall	_lcdWriteDspData
  3757  0129'                    l1465:
  3758                           
  3759                           ;main.c: 85:             }
  3760  0129' 3001               	movlw	1
  3761  012A' 0140               	movlb	0	; select bank0
  3762  012B' 07CE'              	addwf	main@i_188,f
  3763  012C' 3000               	movlw	0
  3764  012D' 3DCF'              	addwfc	main@i_188+1,f
  3765  012E'                    l1467:
  3766  012E' 084E'              	movf	main@i_188,w
  3767  012F' 3E00'              	addlw	(low (main@message6| 0))& (0+255)
  3768  0130' 0086               	movwf	6
  3769  0131' 0187               	clrf	7
  3770  0132' 0801               	movf	1,w
  3771  0133' 1D03               	btfss	3,2
  3772  0134' 2800'              	goto	u1101
  3773  0135' 2800'              	goto	u1100
  3774  0136'                    u1101:
  3775  0136' 2800'              	goto	l1463
  3776  0137'                    u1100:
  3777  0137'                    l1469:
  3778                           
  3779                           ;main.c: 86:             PORTA = 0b00000000;
  3780  0137' 018C               	clrf	12	;volatile
  3781  0138'                    l1471:
  3782                           
  3783                           ;main.c: 88:                 dspTaskW_OnLCD();
  3784  0138' 3180' 2000' 3180'  	fcall	_dspTaskW_OnLCD
  3785  013B' 2800'              	goto	l1471
  3786  013C' 3180' 2800'        	ljmp	start
  3787  013E'                    __end_of_main:
  3788                           
  3789                           	psect	text1
  3790  0000'                    __ptext1:	
  3791 ;; *************** function _initSysPins *****************
  3792 ;; Defined at:
  3793 ;;		line 107 in file "main.c"
  3794 ;; Parameters:    Size  Location     Type
  3795 ;;		None
  3796 ;; Auto vars:     Size  Location     Type
  3797 ;;		None
  3798 ;; Return value:  Size  Location     Type
  3799 ;;                  1    wreg      void 
  3800 ;; Registers used:
  3801 ;;		wreg, status,2
  3802 ;; Tracked objects:
  3803 ;;		On entry : 0/0
  3804 ;;		On exit  : 0/0
  3805 ;;		Unchanged: 0/0
  3806 ;; Data sizes:     COMMON   BANK0   BANK1   BANK2   BANK3   BANK4   BANK5   BANK6   BANK7   BANK8   BANK9  BANK10  BANK1
      +1  BANK12  BANK13  BANK14  BANK15  BANK16  BANK17  BANK18  BANK19  BANK20  BANK21  BANK22  BANK23  BANK24  BANK25  BANK2
      +6  BANK27  BANK28  BANK29  BANK30  BANK31  BANK32  BANK33  BANK34  BANK35  BANK36  BANK37  BANK38  BANK39  BANK40  BANK4
      +1  BANK42  BANK43  BANK44  BANK45  BANK46  BANK47  BANK48  BANK49  BANK50
  3807 ;;      Params:         0       0       0       0       0       0       0       0       0       0       0       0       
      +0       0       0       0       0       0       0       0       0       0       0       0       0       0       0       
      +0       0       0       0       0       0       0       0       0       0       0       0       0       0       0       
      +0       0       0       0       0       0       0       0       0       0
  3808 ;;      Locals:         0       0       0       0       0       0       0       0       0       0       0       0       
      +0       0       0       0       0       0       0       0       0       0       0       0       0       0       0       
      +0       0       0       0       0       0       0       0       0       0       0       0       0       0       0       
      +0       0       0       0       0       0       0       0       0       0
  3809 ;;      Temps:          0       0       0       0       0       0       0       0       0       0       0       0       
      +0       0       0       0       0       0       0       0       0       0       0       0       0       0       0       
      +0       0       0       0       0       0       0       0       0       0       0       0       0       0       0       
      +0       0       0       0       0       0       0       0       0       0
  3810 ;;      Totals:         0       0       0       0       0       0       0       0       0       0       0       0       
      +0       0       0       0       0       0       0       0       0       0       0       0       0       0       0       
      +0       0       0       0       0       0       0       0       0       0       0       0       0       0       0       
      +0       0       0       0       0       0       0       0       0       0
  3811 ;;Total ram usage:        0 bytes
  3812 ;; Hardware stack levels used: 1
  3813 ;; This function calls:
  3814 ;;		Nothing
  3815 ;; This function is called by:
  3816 ;;		_main
  3817 ;; This function uses a non-reentrant model
  3818 ;;
  3819                           
  3820  0000'                    _initSysPins:	
  3821                           ;psect for function _initSysPins
  3822                           
  3823  0000'                    l1339:	
  3824                           ;incstack = 0
  3825                           ; Regs used in _initSysPins: [wreg+status,2]
  3826                           
  3827                           
  3828                           ;main.c: 109:     ANSELA = 0b00001010;
  3829  0000' 300A               	movlw	10
  3830  0001' 017E               	movlb	62	; select bank62
  3831  0002' 00B8               	movwf	56	;volatile
  3832                           
  3833                           ;main.c: 110:     TRISA = 0b11111010;
  3834  0003' 30FA               	movlw	250
  3835  0004' 0140               	movlb	0	; select bank0
  3836  0005' 0091               	movwf	17	;volatile
  3837  0006'                    l1341:
  3838                           
  3839                           ;main.c: 111:     ANSELB = 0b00000000;
  3840  0006' 017E               	movlb	62	; select bank62
  3841  0007' 01C3               	clrf	67	;volatile
  3842  0008'                    l1343:
  3843                           
  3844                           ;main.c: 112:     TRISB = 0b11111110;
  3845  0008' 30FE               	movlw	254
  3846  0009' 0140               	movlb	0	; select bank0
  3847  000A' 0092               	movwf	18	;volatile
  3848                           
  3849                           ;main.c: 113:     ANSELC = 0b00000000;
  3850  000B' 017E               	movlb	62	; select bank62
  3851  000C' 01CE               	clrf	78	;volatile
  3852                           
  3853                           ;main.c: 114:     TRISC = 0b00000000;
  3854  000D' 0140               	movlb	0	; select bank0
  3855  000E' 0193               	clrf	19	;volatile
  3856                           
  3857                           ;main.c: 115:     ANSELD = 0b00000000;
  3858  000F' 017E               	movlb	62	; select bank62
  3859  0010' 01D9               	clrf	89	;volatile
  3860  0011'                    l1345:
  3861                           
  3862                           ;main.c: 116:     TRISD = 0b00001111;
  3863  0011' 300F               	movlw	15
  3864  0012' 0140               	movlb	0	; select bank0
  3865  0013' 0094               	movwf	20	;volatile
  3866  0014'                    l1347:
  3867                           
  3868                           ;main.c: 117:     ANSELE = 0b00000000;
  3869  0014' 017E               	movlb	62	; select bank62
  3870  0015' 01E4               	clrf	100	;volatile
  3871                           
  3872                           ;main.c: 118:     TRISE = 0b11101100;
  3873  0016' 30EC               	movlw	236
  3874  0017' 0140               	movlb	0	; select bank0
  3875  0018' 0095               	movwf	21	;volatile
  3876  0019'                    l120:
  3877  0019' 0008               	return
  3878  001A'                    __end_of_initSysPins:
  3879                           
  3880                           	psect	text2
  3881  0000'                    __ptext2:	
  3882 ;; *************** function _initLCD *****************
  3883 ;; Defined at:
  3884 ;;		line 25 in file "lcd.c"
  3885 ;; Parameters:    Size  Location     Type
  3886 ;;		None
  3887 ;; Auto vars:     Size  Location     Type
  3888 ;;		None
  3889 ;; Return value:  Size  Location     Type
  3890 ;;                  1    wreg      void 
  3891 ;; Registers used:
  3892 ;;		wreg, status,2, status,0, pclath, cstack
  3893 ;; Tracked objects:
  3894 ;;		On entry : 0/0
  3895 ;;		On exit  : 0/0
  3896 ;;		Unchanged: 0/0
  3897 ;; Data sizes:     COMMON   BANK0   BANK1   BANK2   BANK3   BANK4   BANK5   BANK6   BANK7   BANK8   BANK9  BANK10  BANK1
      +1  BANK12  BANK13  BANK14  BANK15  BANK16  BANK17  BANK18  BANK19  BANK20  BANK21  BANK22  BANK23  BANK24  BANK25  BANK2
      +6  BANK27  BANK28  BANK29  BANK30  BANK31  BANK32  BANK33  BANK34  BANK35  BANK36  BANK37  BANK38  BANK39  BANK40  BANK4
      +1  BANK42  BANK43  BANK44  BANK45  BANK46  BANK47  BANK48  BANK49  BANK50
  3898 ;;      Params:         0       0       0       0       0       0       0       0       0       0       0       0       
      +0       0       0       0       0       0       0       0       0       0       0       0       0       0       0       
      +0       0       0       0       0       0       0       0       0       0       0       0       0       0       0       
      +0       0       0       0       0       0       0       0       0       0
  3899 ;;      Locals:         0       0       0       0       0       0       0       0       0       0       0       0       
      +0       0       0       0       0       0       0       0       0       0       0       0       0       0       0       
      +0       0       0       0       0       0       0       0       0       0       0       0       0       0       0       
      +0       0       0       0       0       0       0       0       0       0
  3900 ;;      Temps:          1       0       0       0       0       0       0       0       0       0       0       0       
      +0       0       0       0       0       0       0       0       0       0       0       0       0       0       0       
      +0       0       0       0       0       0       0       0       0       0       0       0       0       0       0       
      +0       0       0       0       0       0       0       0       0       0
  3901 ;;      Totals:         1       0       0       0       0       0       0       0       0       0       0       0       
      +0       0       0       0       0       0       0       0       0       0       0       0       0       0       0       
      +0       0       0       0       0       0       0       0       0       0       0       0       0       0       0       
      +0       0       0       0       0       0       0       0       0       0
  3902 ;;Total ram usage:        1 bytes
  3903 ;; Hardware stack levels used: 1
  3904 ;; Hardware stack levels required when called: 3
  3905 ;; This function calls:
  3906 ;;		_lcdCtrl_ClearDisplay
  3907 ;;		_lcdCtrl_FunctionSet
  3908 ;;		_lcdCtrl_OnOffDisplay
  3909 ;;		_lcdCtrl_SetEntryMode
  3910 ;;		_lcdWriteCtrlWord
  3911 ;; This function is called by:
  3912 ;;		_main
  3913 ;; This function uses a non-reentrant model
  3914 ;;
  3915                           
  3916  0000'                    _initLCD:	
  3917                           ;psect for function _initLCD
  3918                           
  3919  0000'                    l1349:	
  3920                           ;incstack = 0
  3921                           ; Regs used in _initLCD: [wreg+status,2+status,0+pclath+cstack]
  3922                           
  3923                           
  3924                           ;lcd.c: 28:     _delay((unsigned long)((15)*(4000000/4000.0)));
  3925  0000' 3014               	movlw	20
  3926  0001' 008B'              	movwf	??_initLCD
  3927  0002' 307A               	movlw	122
  3928  0003'                    u1117:
  3929  0003' 0B89               	decfsz	9,f
  3930  0004' 2800'              	goto	u1117
  3931  0005' 0B8B'              	decfsz	??_initLCD,f
  3932  0006' 2800'              	goto	u1117
  3933  0007'                    l1351:
  3934                           
  3935                           ;lcd.c: 29:     lcdWriteCtrlWord(0b00000011);
  3936  0007' 3003               	movlw	3
  3937  0008' 3180' 2000' 3180'  	fcall	_lcdWriteCtrlWord
  3938  000B'                    l1353:
  3939                           
  3940                           ;lcd.c: 30:     _delay((unsigned long)((5)*(4000000/4000.0)));
  3941  000B' 3007               	movlw	7
  3942  000C' 008B'              	movwf	??_initLCD
  3943  000D' 307D               	movlw	125
  3944  000E'                    u1127:
  3945  000E' 0B89               	decfsz	9,f
  3946  000F' 2800'              	goto	u1127
  3947  0010' 0B8B'              	decfsz	??_initLCD,f
  3948  0011' 2800'              	goto	u1127
  3949  0012' 0000               	nop
  3950                           
  3951                           ;lcd.c: 31:     lcdWriteCtrlWord(0b00000010);
  3952  0013' 3002               	movlw	2
  3953  0014' 3180' 2000' 3180'  	fcall	_lcdWriteCtrlWord
  3954                           
  3955                           ;lcd.c: 32:     lcdCtrl_FunctionSet();
  3956  0017' 3180' 2000' 3180'  	fcall	_lcdCtrl_FunctionSet
  3957                           
  3958                           ;lcd.c: 33:     lcdCtrl_OnOffDisplay(1, 0);
  3959  001A' 0187'              	clrf	lcdCtrl_OnOffDisplay@cursor_state
  3960  001B' 3001               	movlw	1
  3961  001C' 3180' 2000' 3180'  	fcall	_lcdCtrl_OnOffDisplay
  3962                           
  3963                           ;lcd.c: 34:     lcdCtrl_SetEntryMode();
  3964  001F' 3180' 2000' 3180'  	fcall	_lcdCtrl_SetEntryMode
  3965                           
  3966                           ;lcd.c: 35:     lcdCtrl_ClearDisplay();
  3967  0022' 3180' 2000' 3180'  	fcall	_lcdCtrl_ClearDisplay
  3968  0025'                    l159:
  3969  0025' 0008               	return
  3970  0026'                    __end_of_initLCD:
  3971                           
  3972                           	psect	text3
  3973  0000'                    __ptext3:	
  3974 ;; *************** function _lcdCtrl_SetEntryMode *****************
  3975 ;; Defined at:
  3976 ;;		line 93 in file "lcd.c"
  3977 ;; Parameters:    Size  Location     Type
  3978 ;;		None
  3979 ;; Auto vars:     Size  Location     Type
  3980 ;;		None
  3981 ;; Return value:  Size  Location     Type
  3982 ;;                  1    wreg      void 
  3983 ;; Registers used:
  3984 ;;		wreg, status,2, status,0, pclath, cstack
  3985 ;; Tracked objects:
  3986 ;;		On entry : 0/0
  3987 ;;		On exit  : 0/0
  3988 ;;		Unchanged: 0/0
  3989 ;; Data sizes:     COMMON   BANK0   BANK1   BANK2   BANK3   BANK4   BANK5   BANK6   BANK7   BANK8   BANK9  BANK10  BANK1
      +1  BANK12  BANK13  BANK14  BANK15  BANK16  BANK17  BANK18  BANK19  BANK20  BANK21  BANK22  BANK23  BANK24  BANK25  BANK2
      +6  BANK27  BANK28  BANK29  BANK30  BANK31  BANK32  BANK33  BANK34  BANK35  BANK36  BANK37  BANK38  BANK39  BANK40  BANK4
      +1  BANK42  BANK43  BANK44  BANK45  BANK46  BANK47  BANK48  BANK49  BANK50
  3990 ;;      Params:         0       0       0       0       0       0       0       0       0       0       0       0       
      +0       0       0       0       0       0       0       0       0       0       0       0       0       0       0       
      +0       0       0       0       0       0       0       0       0       0       0       0       0       0       0       
      +0       0       0       0       0       0       0       0       0       0
  3991 ;;      Locals:         0       0       0       0       0       0       0       0       0       0       0       0       
      +0       0       0       0       0       0       0       0       0       0       0       0       0       0       0       
      +0       0       0       0       0       0       0       0       0       0       0       0       0       0       0       
      +0       0       0       0       0       0       0       0       0       0
  3992 ;;      Temps:          0       0       0       0       0       0       0       0       0       0       0       0       
      +0       0       0       0       0       0       0       0       0       0       0       0       0       0       0       
      +0       0       0       0       0       0       0       0       0       0       0       0       0       0       0       
      +0       0       0       0       0       0       0       0       0       0
  3993 ;;      Totals:         0       0       0       0       0       0       0       0       0       0       0       0       
      +0       0       0       0       0       0       0       0       0       0       0       0       0       0       0       
      +0       0       0       0       0       0       0       0       0       0       0       0       0       0       0       
      +0       0       0       0       0       0       0       0       0       0
  3994 ;;Total ram usage:        0 bytes
  3995 ;; Hardware stack levels used: 1
  3996 ;; Hardware stack levels required when called: 2
  3997 ;; This function calls:
  3998 ;;		_lcdWriteCtrlWord
  3999 ;; This function is called by:
  4000 ;;		_initLCD
  4001 ;; This function uses a non-reentrant model
  4002 ;;
  4003                           
  4004  0000'                    _lcdCtrl_SetEntryMode:	
  4005                           ;psect for function _lcdCtrl_SetEntryMode
  4006                           
  4007  0000'                    l1207:	
  4008                           ;incstack = 0
  4009                           ; Regs used in _lcdCtrl_SetEntryMode: [wreg+status,2+status,0+pclath+cstack]
  4010                           
  4011                           
  4012                           ;lcd.c: 95:     lcdWriteCtrlWord(0b000001100);
  4013  0000' 300C               	movlw	12
  4014  0001' 3180' 2000' 3180'  	fcall	_lcdWriteCtrlWord
  4015  0004'                    l184:
  4016  0004' 0008               	return
  4017  0005'                    __end_of_lcdCtrl_SetEntryMode:
  4018                           
  4019                           	psect	text4
  4020  0000'                    __ptext4:	
  4021 ;; *************** function _lcdCtrl_OnOffDisplay *****************
  4022 ;; Defined at:
  4023 ;;		line 84 in file "lcd.c"
  4024 ;; Parameters:    Size  Location     Type
  4025 ;;  display_stat    1    wreg     unsigned char 
  4026 ;;  cursor_state    1    7[COMMON] unsigned char 
  4027 ;; Auto vars:     Size  Location     Type
  4028 ;;  display_stat    1    9[COMMON] unsigned char 
  4029 ;;  pattern         1   10[COMMON] unsigned char 
  4030 ;; Return value:  Size  Location     Type
  4031 ;;                  1    wreg      void 
  4032 ;; Registers used:
  4033 ;;		wreg, status,2, status,0, pclath, cstack
  4034 ;; Tracked objects:
  4035 ;;		On entry : 0/0
  4036 ;;		On exit  : 0/0
  4037 ;;		Unchanged: 0/0
  4038 ;; Data sizes:     COMMON   BANK0   BANK1   BANK2   BANK3   BANK4   BANK5   BANK6   BANK7   BANK8   BANK9  BANK10  BANK1
      +1  BANK12  BANK13  BANK14  BANK15  BANK16  BANK17  BANK18  BANK19  BANK20  BANK21  BANK22  BANK23  BANK24  BANK25  BANK2
      +6  BANK27  BANK28  BANK29  BANK30  BANK31  BANK32  BANK33  BANK34  BANK35  BANK36  BANK37  BANK38  BANK39  BANK40  BANK4
      +1  BANK42  BANK43  BANK44  BANK45  BANK46  BANK47  BANK48  BANK49  BANK50
  4039 ;;      Params:         1       0       0       0       0       0       0       0       0       0       0       0       
      +0       0       0       0       0       0       0       0       0       0       0       0       0       0       0       
      +0       0       0       0       0       0       0       0       0       0       0       0       0       0       0       
      +0       0       0       0       0       0       0       0       0       0
  4040 ;;      Locals:         2       0       0       0       0       0       0       0       0       0       0       0       
      +0       0       0       0       0       0       0       0       0       0       0       0       0       0       0       
      +0       0       0       0       0       0       0       0       0       0       0       0       0       0       0       
      +0       0       0       0       0       0       0       0       0       0
  4041 ;;      Temps:          1       0       0       0       0       0       0       0       0       0       0       0       
      +0       0       0       0       0       0       0       0       0       0       0       0       0       0       0       
      +0       0       0       0       0       0       0       0       0       0       0       0       0       0       0       
      +0       0       0       0       0       0       0       0       0       0
  4042 ;;      Totals:         4       0       0       0       0       0       0       0       0       0       0       0       
      +0       0       0       0       0       0       0       0       0       0       0       0       0       0       0       
      +0       0       0       0       0       0       0       0       0       0       0       0       0       0       0       
      +0       0       0       0       0       0       0       0       0       0
  4043 ;;Total ram usage:        4 bytes
  4044 ;; Hardware stack levels used: 1
  4045 ;; Hardware stack levels required when called: 2
  4046 ;; This function calls:
  4047 ;;		_lcdWriteCtrlWord
  4048 ;; This function is called by:
  4049 ;;		_initLCD
  4050 ;; This function uses a non-reentrant model
  4051 ;;
  4052                           
  4053  0000'                    _lcdCtrl_OnOffDisplay:	
  4054                           ;psect for function _lcdCtrl_OnOffDisplay
  4055                           
  4056                           
  4057                           ;incstack = 0
  4058                           ; Regs used in _lcdCtrl_OnOffDisplay: [wreg+status,2+status,0+pclath+cstack]
  4059                           ;lcdCtrl_OnOffDisplay@display_state stored from wreg
  4060  0000' 0089'              	movwf	lcdCtrl_OnOffDisplay@display_state
  4061  0001'                    l1195:
  4062                           
  4063                           ;lcd.c: 84: void lcdCtrl_OnOffDisplay(char display_state, char cursor_state);lcd.c: 85: 
      +                          {;lcd.c: 86:     char pattern = 0b00001000;
  4064  0001' 3008               	movlw	8
  4065  0002' 008A'              	movwf	lcdCtrl_OnOffDisplay@pattern
  4066  0003'                    l1197:
  4067                           
  4068                           ;lcd.c: 87:     if(display_state == 1)
  4069  0003' 0309'              	decf	lcdCtrl_OnOffDisplay@display_state,w
  4070  0004' 1D03               	btfss	3,2
  4071  0005' 2800'              	goto	u631
  4072  0006' 2800'              	goto	u630
  4073  0007'                    u631:
  4074  0007' 2800'              	goto	l1201
  4075  0008'                    u630:
  4076  0008'                    l1199:
  4077                           
  4078                           ;lcd.c: 88:     pattern |= 0b00000100;
  4079  0008' 150A'              	bsf	lcdCtrl_OnOffDisplay@pattern,2
  4080  0009'                    l1201:
  4081                           
  4082                           ;lcd.c: 89:     if(cursor_state == 1)
  4083  0009' 0307'              	decf	lcdCtrl_OnOffDisplay@cursor_state,w
  4084  000A' 1D03               	btfss	3,2
  4085  000B' 2800'              	goto	u641
  4086  000C' 2800'              	goto	u640
  4087  000D'                    u641:
  4088  000D' 2800'              	goto	l1205
  4089  000E'                    u640:
  4090  000E'                    l1203:
  4091                           
  4092                           ;lcd.c: 90:     pattern |= 0b00000011;
  4093  000E' 3003               	movlw	3
  4094  000F' 0088'              	movwf	??_lcdCtrl_OnOffDisplay
  4095  0010' 0808'              	movf	??_lcdCtrl_OnOffDisplay,w
  4096  0011' 048A'              	iorwf	lcdCtrl_OnOffDisplay@pattern,f
  4097  0012'                    l1205:
  4098                           
  4099                           ;lcd.c: 91:     lcdWriteCtrlWord(pattern);
  4100  0012' 080A'              	movf	lcdCtrl_OnOffDisplay@pattern,w
  4101  0013' 3180' 2000' 3180'  	fcall	_lcdWriteCtrlWord
  4102  0016'                    l181:
  4103  0016' 0008               	return
  4104  0017'                    __end_of_lcdCtrl_OnOffDisplay:
  4105                           
  4106                           	psect	text5
  4107  0000'                    __ptext5:	
  4108 ;; *************** function _lcdCtrl_FunctionSet *****************
  4109 ;; Defined at:
  4110 ;;		line 80 in file "lcd.c"
  4111 ;; Parameters:    Size  Location     Type
  4112 ;;		None
  4113 ;; Auto vars:     Size  Location     Type
  4114 ;;		None
  4115 ;; Return value:  Size  Location     Type
  4116 ;;                  1    wreg      void 
  4117 ;; Registers used:
  4118 ;;		wreg, status,2, status,0, pclath, cstack
  4119 ;; Tracked objects:
  4120 ;;		On entry : 0/0
  4121 ;;		On exit  : 0/0
  4122 ;;		Unchanged: 0/0
  4123 ;; Data sizes:     COMMON   BANK0   BANK1   BANK2   BANK3   BANK4   BANK5   BANK6   BANK7   BANK8   BANK9  BANK10  BANK1
      +1  BANK12  BANK13  BANK14  BANK15  BANK16  BANK17  BANK18  BANK19  BANK20  BANK21  BANK22  BANK23  BANK24  BANK25  BANK2
      +6  BANK27  BANK28  BANK29  BANK30  BANK31  BANK32  BANK33  BANK34  BANK35  BANK36  BANK37  BANK38  BANK39  BANK40  BANK4
      +1  BANK42  BANK43  BANK44  BANK45  BANK46  BANK47  BANK48  BANK49  BANK50
  4124 ;;      Params:         0       0       0       0       0       0       0       0       0       0       0       0       
      +0       0       0       0       0       0       0       0       0       0       0       0       0       0       0       
      +0       0       0       0       0       0       0       0       0       0       0       0       0       0       0       
      +0       0       0       0       0       0       0       0       0       0
  4125 ;;      Locals:         0       0       0       0       0       0       0       0       0       0       0       0       
      +0       0       0       0       0       0       0       0       0       0       0       0       0       0       0       
      +0       0       0       0       0       0       0       0       0       0       0       0       0       0       0       
      +0       0       0       0       0       0       0       0       0       0
  4126 ;;      Temps:          0       0       0       0       0       0       0       0       0       0       0       0       
      +0       0       0       0       0       0       0       0       0       0       0       0       0       0       0       
      +0       0       0       0       0       0       0       0       0       0       0       0       0       0       0       
      +0       0       0       0       0       0       0       0       0       0
  4127 ;;      Totals:         0       0       0       0       0       0       0       0       0       0       0       0       
      +0       0       0       0       0       0       0       0       0       0       0       0       0       0       0       
      +0       0       0       0       0       0       0       0       0       0       0       0       0       0       0       
      +0       0       0       0       0       0       0       0       0       0
  4128 ;;Total ram usage:        0 bytes
  4129 ;; Hardware stack levels used: 1
  4130 ;; Hardware stack levels required when called: 2
  4131 ;; This function calls:
  4132 ;;		_lcdWriteCtrlWord
  4133 ;; This function is called by:
  4134 ;;		_initLCD
  4135 ;; This function uses a non-reentrant model
  4136 ;;
  4137                           
  4138  0000'                    _lcdCtrl_FunctionSet:	
  4139                           ;psect for function _lcdCtrl_FunctionSet
  4140                           
  4141  0000'                    l1193:	
  4142                           ;incstack = 0
  4143                           ; Regs used in _lcdCtrl_FunctionSet: [wreg+status,2+status,0+pclath+cstack]
  4144                           
  4145                           
  4146                           ;lcd.c: 82:     lcdWriteCtrlWord(0b00101000);
  4147  0000' 3028               	movlw	40
  4148  0001' 3180' 2000' 3180'  	fcall	_lcdWriteCtrlWord
  4149  0004'                    l176:
  4150  0004' 0008               	return
  4151  0005'                    __end_of_lcdCtrl_FunctionSet:
  4152                           
  4153                           	psect	text6
  4154  0000'                    __ptext6:	
  4155 ;; *************** function _lcdCtrl_ClearDisplay *****************
  4156 ;; Defined at:
  4157 ;;		line 97 in file "lcd.c"
  4158 ;; Parameters:    Size  Location     Type
  4159 ;;		None
  4160 ;; Auto vars:     Size  Location     Type
  4161 ;;		None
  4162 ;; Return value:  Size  Location     Type
  4163 ;;                  1    wreg      void 
  4164 ;; Registers used:
  4165 ;;		wreg, status,2, status,0, pclath, cstack
  4166 ;; Tracked objects:
  4167 ;;		On entry : 0/0
  4168 ;;		On exit  : 0/0
  4169 ;;		Unchanged: 0/0
  4170 ;; Data sizes:     COMMON   BANK0   BANK1   BANK2   BANK3   BANK4   BANK5   BANK6   BANK7   BANK8   BANK9  BANK10  BANK1
      +1  BANK12  BANK13  BANK14  BANK15  BANK16  BANK17  BANK18  BANK19  BANK20  BANK21  BANK22  BANK23  BANK24  BANK25  BANK2
      +6  BANK27  BANK28  BANK29  BANK30  BANK31  BANK32  BANK33  BANK34  BANK35  BANK36  BANK37  BANK38  BANK39  BANK40  BANK4
      +1  BANK42  BANK43  BANK44  BANK45  BANK46  BANK47  BANK48  BANK49  BANK50
  4171 ;;      Params:         0       0       0       0       0       0       0       0       0       0       0       0       
      +0       0       0       0       0       0       0       0       0       0       0       0       0       0       0       
      +0       0       0       0       0       0       0       0       0       0       0       0       0       0       0       
      +0       0       0       0       0       0       0       0       0       0
  4172 ;;      Locals:         0       0       0       0       0       0       0       0       0       0       0       0       
      +0       0       0       0       0       0       0       0       0       0       0       0       0       0       0       
      +0       0       0       0       0       0       0       0       0       0       0       0       0       0       0       
      +0       0       0       0       0       0       0       0       0       0
  4173 ;;      Temps:          0       0       0       0       0       0       0       0       0       0       0       0       
      +0       0       0       0       0       0       0       0       0       0       0       0       0       0       0       
      +0       0       0       0       0       0       0       0       0       0       0       0       0       0       0       
      +0       0       0       0       0       0       0       0       0       0
  4174 ;;      Totals:         0       0       0       0       0       0       0       0       0       0       0       0       
      +0       0       0       0       0       0       0       0       0       0       0       0       0       0       0       
      +0       0       0       0       0       0       0       0       0       0       0       0       0       0       0       
      +0       0       0       0       0       0       0       0       0       0
  4175 ;;Total ram usage:        0 bytes
  4176 ;; Hardware stack levels used: 1
  4177 ;; Hardware stack levels required when called: 2
  4178 ;; This function calls:
  4179 ;;		_lcdWriteCtrlWord
  4180 ;; This function is called by:
  4181 ;;		_initLCD
  4182 ;; This function uses a non-reentrant model
  4183 ;;
  4184                           
  4185  0000'                    _lcdCtrl_ClearDisplay:	
  4186                           ;psect for function _lcdCtrl_ClearDisplay
  4187                           
  4188  0000'                    l1209:	
  4189                           ;incstack = 0
  4190                           ; Regs used in _lcdCtrl_ClearDisplay: [wreg+status,2+status,0+pclath+cstack]
  4191                           
  4192                           
  4193                           ;lcd.c: 99:     lcdWriteCtrlWord(0b00000001);
  4194  0000' 3001               	movlw	1
  4195  0001' 3180' 2000' 3180'  	fcall	_lcdWriteCtrlWord
  4196  0004'                    l187:
  4197  0004' 0008               	return
  4198  0005'                    __end_of_lcdCtrl_ClearDisplay:
  4199                           
  4200                           	psect	text7
  4201  0000'                    __ptext7:	
  4202 ;; *************** function _initADC *****************
  4203 ;; Defined at:
  4204 ;;		line 12 in file "adc.c"
  4205 ;; Parameters:    Size  Location     Type
  4206 ;;		None
  4207 ;; Auto vars:     Size  Location     Type
  4208 ;;		None
  4209 ;; Return value:  Size  Location     Type
  4210 ;;                  1    wreg      void 
  4211 ;; Registers used:
  4212 ;;		wreg, status,2
  4213 ;; Tracked objects:
  4214 ;;		On entry : 0/0
  4215 ;;		On exit  : 0/0
  4216 ;;		Unchanged: 0/0
  4217 ;; Data sizes:     COMMON   BANK0   BANK1   BANK2   BANK3   BANK4   BANK5   BANK6   BANK7   BANK8   BANK9  BANK10  BANK1
      +1  BANK12  BANK13  BANK14  BANK15  BANK16  BANK17  BANK18  BANK19  BANK20  BANK21  BANK22  BANK23  BANK24  BANK25  BANK2
      +6  BANK27  BANK28  BANK29  BANK30  BANK31  BANK32  BANK33  BANK34  BANK35  BANK36  BANK37  BANK38  BANK39  BANK40  BANK4
      +1  BANK42  BANK43  BANK44  BANK45  BANK46  BANK47  BANK48  BANK49  BANK50
  4218 ;;      Params:         0       0       0       0       0       0       0       0       0       0       0       0       
      +0       0       0       0       0       0       0       0       0       0       0       0       0       0       0       
      +0       0       0       0       0       0       0       0       0       0       0       0       0       0       0       
      +0       0       0       0       0       0       0       0       0       0
  4219 ;;      Locals:         0       0       0       0       0       0       0       0       0       0       0       0       
      +0       0       0       0       0       0       0       0       0       0       0       0       0       0       0       
      +0       0       0       0       0       0       0       0       0       0       0       0       0       0       0       
      +0       0       0       0       0       0       0       0       0       0
  4220 ;;      Temps:          0       0       0       0       0       0       0       0       0       0       0       0       
      +0       0       0       0       0       0       0       0       0       0       0       0       0       0       0       
      +0       0       0       0       0       0       0       0       0       0       0       0       0       0       0       
      +0       0       0       0       0       0       0       0       0       0
  4221 ;;      Totals:         0       0       0       0       0       0       0       0       0       0       0       0       
      +0       0       0       0       0       0       0       0       0       0       0       0       0       0       0       
      +0       0       0       0       0       0       0       0       0       0       0       0       0       0       0       
      +0       0       0       0       0       0       0       0       0       0
  4222 ;;Total ram usage:        0 bytes
  4223 ;; Hardware stack levels used: 1
  4224 ;; This function calls:
  4225 ;;		Nothing
  4226 ;; This function is called by:
  4227 ;;		_main
  4228 ;; This function uses a non-reentrant model
  4229 ;;
  4230                           
  4231  0000'                    _initADC:	
  4232                           ;psect for function _initADC
  4233                           
  4234  0000'                    l1333:	
  4235                           ;incstack = 0
  4236                           ; Regs used in _initADC: [wreg+status,2]
  4237                           
  4238                           
  4239                           ;adc.c: 14:     ADREF = 0b00000000;
  4240  0000' 0141               	movlb	1	; select bank1
  4241  0001' 019A               	clrf	26	;volatile
  4242  0002'                    l1335:
  4243                           
  4244                           ;adc.c: 15:     ADCLK = 0b00000011;
  4245  0002' 3003               	movlw	3
  4246  0003' 0098               	movwf	24	;volatile
  4247  0004'                    l1337:
  4248                           
  4249                           ;adc.c: 16:     ADACQ = 0b00000000;
  4250  0004' 019D               	clrf	29	;volatile
  4251                           
  4252                           ;adc.c: 17:     ADCON0 = 0b10000100;
  4253  0005' 3084               	movlw	132
  4254  0006' 0093               	movwf	19	;volatile
  4255  0007'                    l21:
  4256  0007' 0008               	return
  4257  0008'                    __end_of_initADC:
  4258                           
  4259                           	psect	text8
  4260  0000'                    __ptext8:	
  4261 ;; *************** function _dspTaskW_OnLCD *****************
  4262 ;; Defined at:
  4263 ;;		line 42 in file "dspTask.c"
  4264 ;; Parameters:    Size  Location     Type
  4265 ;;		None
  4266 ;; Auto vars:     Size  Location     Type
  4267 ;;  count           2   10[BANK0 ] int 
  4268 ;;  Wlvl            2    4[BANK0 ] unsigned int 
  4269 ;;  dig3            1    9[BANK0 ] unsigned char 
  4270 ;;  dig2            1    8[BANK0 ] unsigned char 
  4271 ;;  dig1            1    7[BANK0 ] unsigned char 
  4272 ;;  dig0            1    6[BANK0 ] unsigned char 
  4273 ;; Return value:  Size  Location     Type
  4274 ;;                  1    wreg      void 
  4275 ;; Registers used:
  4276 ;;		wreg, status,2, status,0, pclath, cstack
  4277 ;; Tracked objects:
  4278 ;;		On entry : 0/0
  4279 ;;		On exit  : 0/0
  4280 ;;		Unchanged: 0/0
  4281 ;; Data sizes:     COMMON   BANK0   BANK1   BANK2   BANK3   BANK4   BANK5   BANK6   BANK7   BANK8   BANK9  BANK10  BANK1
      +1  BANK12  BANK13  BANK14  BANK15  BANK16  BANK17  BANK18  BANK19  BANK20  BANK21  BANK22  BANK23  BANK24  BANK25  BANK2
      +6  BANK27  BANK28  BANK29  BANK30  BANK31  BANK32  BANK33  BANK34  BANK35  BANK36  BANK37  BANK38  BANK39  BANK40  BANK4
      +1  BANK42  BANK43  BANK44  BANK45  BANK46  BANK47  BANK48  BANK49  BANK50
  4282 ;;      Params:         0       0       0       0       0       0       0       0       0       0       0       0       
      +0       0       0       0       0       0       0       0       0       0       0       0       0       0       0       
      +0       0       0       0       0       0       0       0       0       0       0       0       0       0       0       
      +0       0       0       0       0       0       0       0       0       0
  4283 ;;      Locals:         0       8       0       0       0       0       0       0       0       0       0       0       
      +0       0       0       0       0       0       0       0       0       0       0       0       0       0       0       
      +0       0       0       0       0       0       0       0       0       0       0       0       0       0       0       
      +0       0       0       0       0       0       0       0       0       0
  4284 ;;      Temps:          0       2       0       0       0       0       0       0       0       0       0       0       
      +0       0       0       0       0       0       0       0       0       0       0       0       0       0       0       
      +0       0       0       0       0       0       0       0       0       0       0       0       0       0       0       
      +0       0       0       0       0       0       0       0       0       0
  4285 ;;      Totals:         0      10       0       0       0       0       0       0       0       0       0       0       
      +0       0       0       0       0       0       0       0       0       0       0       0       0       0       0       
      +0       0       0       0       0       0       0       0       0       0       0       0       0       0       0       
      +0       0       0       0       0       0       0       0       0       0
  4286 ;;Total ram usage:       10 bytes
  4287 ;; Hardware stack levels used: 1
  4288 ;; Hardware stack levels required when called: 3
  4289 ;; This function calls:
  4290 ;;		___awdiv
  4291 ;;		___awmod
  4292 ;;		___lwdiv
  4293 ;;		_adc_GetWConversion
  4294 ;;		_lcdCtrl_SetPos
  4295 ;;		_lcdWriteDspData
  4296 ;; This function is called by:
  4297 ;;		_main
  4298 ;; This function uses a non-reentrant model
  4299 ;;
  4300                           
  4301  0000'                    _dspTaskW_OnLCD:	
  4302                           ;psect for function _dspTaskW_OnLCD
  4303                           
  4304  0000'                    l1365:	
  4305                           ;incstack = 0
  4306                           ; Regs used in _dspTaskW_OnLCD: [wreg+status,2+status,0+pclath+cstack]
  4307                           
  4308                           
  4309                           ;dspTask.c: 44:     unsigned int Wlvl;;dspTask.c: 45:     int count;;dspTask.c: 46:     
      +                          unsigned char dig0, dig1, dig2, dig3;;dspTask.c: 47:     if(adc_GetWConversion()== adc_G
      +                          etWConversion()) {
  4310  0000' 3180' 2000' 3180'  	fcall	_adc_GetWConversion
  4311  0003' 0800'              	movf	?_adc_GetWConversion,w
  4312  0004' 0140               	movlb	0	; select bank0
  4313  0005' 0082'              	movwf	??_dspTaskW_OnLCD
  4314  0006' 0801'              	movf	?_adc_GetWConversion+1,w
  4315  0007' 0083'              	movwf	??_dspTaskW_OnLCD+1
  4316  0008' 3180' 2000' 3180'  	fcall	_adc_GetWConversion
  4317  000B' 0801'              	movf	?_adc_GetWConversion+1,w
  4318  000C' 0140               	movlb	0	; select bank0
  4319  000D' 0603'              	xorwf	??_dspTaskW_OnLCD+1,w
  4320  000E' 1D03               	skipz
  4321  000F' 2800'              	goto	u965
  4322  0010' 0800'              	movf	?_adc_GetWConversion,w
  4323  0011' 0602'              	xorwf	??_dspTaskW_OnLCD,w
  4324  0012'                    u965:
  4325  0012' 1D03               	skipz
  4326  0013' 2800'              	goto	u961
  4327  0014' 2800'              	goto	u960
  4328  0015'                    u961:
  4329  0015' 2800'              	goto	l138
  4330  0016'                    u960:
  4331  0016'                    l1367:
  4332                           
  4333                           ;dspTask.c: 49:         Wlvl = adc_GetWConversion();
  4334  0016' 3180' 2000' 3180'  	fcall	_adc_GetWConversion
  4335  0019' 0801'              	movf	?_adc_GetWConversion+1,w
  4336  001A' 0140               	movlb	0	; select bank0
  4337  001B' 0085'              	movwf	dspTaskW_OnLCD@Wlvl+1
  4338  001C' 0800'              	movf	?_adc_GetWConversion,w
  4339  001D' 0084'              	movwf	dspTaskW_OnLCD@Wlvl
  4340  001E'                    l1369:
  4341                           
  4342                           ;dspTask.c: 50:         count = Wlvl/10;
  4343  001E' 300A               	movlw	10
  4344  001F' 0086'              	movwf	___lwdiv@divisor
  4345  0020' 3000               	movlw	0
  4346  0021' 0087'              	movwf	___lwdiv@divisor+1
  4347  0022' 0805'              	movf	dspTaskW_OnLCD@Wlvl+1,w
  4348  0023' 0089'              	movwf	___lwdiv@dividend+1
  4349  0024' 0804'              	movf	dspTaskW_OnLCD@Wlvl,w
  4350  0025' 0088'              	movwf	___lwdiv@dividend
  4351  0026' 3180' 2000' 3180'  	fcall	___lwdiv
  4352  0029' 0807'              	movf	?___lwdiv+1,w
  4353  002A' 0140               	movlb	0	; select bank0
  4354  002B' 008B'              	movwf	dspTaskW_OnLCD@count+1
  4355  002C' 0806'              	movf	?___lwdiv,w
  4356  002D' 008A'              	movwf	dspTaskW_OnLCD@count
  4357  002E'                    l1371:
  4358                           
  4359                           ;dspTask.c: 51:         dig0 = count%10;
  4360  002E' 300A               	movlw	10
  4361  002F' 0089'              	movwf	___awmod@divisor
  4362  0030' 3000               	movlw	0
  4363  0031' 008A'              	movwf	___awmod@divisor+1
  4364  0032' 080B'              	movf	dspTaskW_OnLCD@count+1,w
  4365  0033' 008C'              	movwf	___awmod@dividend+1
  4366  0034' 080A'              	movf	dspTaskW_OnLCD@count,w
  4367  0035' 008B'              	movwf	___awmod@dividend
  4368  0036' 3180' 2000' 3180'  	fcall	___awmod
  4369  0039' 0809'              	movf	?___awmod,w
  4370  003A' 0140               	movlb	0	; select bank0
  4371  003B' 0086'              	movwf	dspTaskW_OnLCD@dig0
  4372  003C'                    l1373:
  4373                           
  4374                           ;dspTask.c: 52:         dig1 = (count/10)%10;
  4375  003C' 300A               	movlw	10
  4376  003D' 0089'              	movwf	___awmod@divisor
  4377  003E' 3000               	movlw	0
  4378  003F' 008A'              	movwf	___awmod@divisor+1
  4379  0040' 300A               	movlw	10
  4380  0041' 0080'              	movwf	___awdiv@divisor
  4381  0042' 3000               	movlw	0
  4382  0043' 0081'              	movwf	___awdiv@divisor+1
  4383  0044' 080B'              	movf	dspTaskW_OnLCD@count+1,w
  4384  0045' 0083'              	movwf	___awdiv@dividend+1
  4385  0046' 080A'              	movf	dspTaskW_OnLCD@count,w
  4386  0047' 0082'              	movwf	___awdiv@dividend
  4387  0048' 3180' 2000' 3180'  	fcall	___awdiv
  4388  004B' 0801'              	movf	?___awdiv+1,w
  4389  004C' 008C'              	movwf	___awmod@dividend+1
  4390  004D' 0800'              	movf	?___awdiv,w
  4391  004E' 008B'              	movwf	___awmod@dividend
  4392  004F' 3180' 2000' 3180'  	fcall	___awmod
  4393  0052' 0809'              	movf	?___awmod,w
  4394  0053' 0140               	movlb	0	; select bank0
  4395  0054' 0087'              	movwf	dspTaskW_OnLCD@dig1
  4396  0055'                    l1375:
  4397                           
  4398                           ;dspTask.c: 53:         dig2 = (count/100)%10;
  4399  0055' 300A               	movlw	10
  4400  0056' 0089'              	movwf	___awmod@divisor
  4401  0057' 3000               	movlw	0
  4402  0058' 008A'              	movwf	___awmod@divisor+1
  4403  0059' 3064               	movlw	100
  4404  005A' 0080'              	movwf	___awdiv@divisor
  4405  005B' 3000               	movlw	0
  4406  005C' 0081'              	movwf	___awdiv@divisor+1
  4407  005D' 080B'              	movf	dspTaskW_OnLCD@count+1,w
  4408  005E' 0083'              	movwf	___awdiv@dividend+1
  4409  005F' 080A'              	movf	dspTaskW_OnLCD@count,w
  4410  0060' 0082'              	movwf	___awdiv@dividend
  4411  0061' 3180' 2000' 3180'  	fcall	___awdiv
  4412  0064' 0801'              	movf	?___awdiv+1,w
  4413  0065' 008C'              	movwf	___awmod@dividend+1
  4414  0066' 0800'              	movf	?___awdiv,w
  4415  0067' 008B'              	movwf	___awmod@dividend
  4416  0068' 3180' 2000' 3180'  	fcall	___awmod
  4417  006B' 0809'              	movf	?___awmod,w
  4418  006C' 0140               	movlb	0	; select bank0
  4419  006D' 0088'              	movwf	dspTaskW_OnLCD@dig2
  4420  006E'                    l1377:
  4421                           
  4422                           ;dspTask.c: 54:         dig3 = (count/1000)%10;
  4423  006E' 300A               	movlw	10
  4424  006F' 0089'              	movwf	___awmod@divisor
  4425  0070' 3000               	movlw	0
  4426  0071' 008A'              	movwf	___awmod@divisor+1
  4427  0072' 30E8               	movlw	232
  4428  0073' 0080'              	movwf	___awdiv@divisor
  4429  0074' 3003               	movlw	3
  4430  0075' 0081'              	movwf	___awdiv@divisor+1
  4431  0076' 080B'              	movf	dspTaskW_OnLCD@count+1,w
  4432  0077' 0083'              	movwf	___awdiv@dividend+1
  4433  0078' 080A'              	movf	dspTaskW_OnLCD@count,w
  4434  0079' 0082'              	movwf	___awdiv@dividend
  4435  007A' 3180' 2000' 3180'  	fcall	___awdiv
  4436  007D' 0801'              	movf	?___awdiv+1,w
  4437  007E' 008C'              	movwf	___awmod@dividend+1
  4438  007F' 0800'              	movf	?___awdiv,w
  4439  0080' 008B'              	movwf	___awmod@dividend
  4440  0081' 3180' 2000' 3180'  	fcall	___awmod
  4441  0084' 0809'              	movf	?___awmod,w
  4442  0085' 0140               	movlb	0	; select bank0
  4443  0086' 0089'              	movwf	dspTaskW_OnLCD@dig3
  4444  0087'                    l1379:
  4445                           
  4446                           ;dspTask.c: 55:         lcdCtrl_SetPos(2, 8);
  4447  0087' 3008               	movlw	8
  4448  0088' 0087'              	movwf	lcdCtrl_SetPos@col
  4449  0089' 3002               	movlw	2
  4450  008A' 3180' 2000' 3180'  	fcall	_lcdCtrl_SetPos
  4451  008D'                    l1381:
  4452                           
  4453                           ;dspTask.c: 56:         lcdWriteDspData(dig3 + 0x30);
  4454  008D' 0140               	movlb	0	; select bank0
  4455  008E' 0809'              	movf	dspTaskW_OnLCD@dig3,w
  4456  008F' 3E30               	addlw	48
  4457  0090' 3180' 2000' 3180'  	fcall	_lcdWriteDspData
  4458  0093'                    l1383:
  4459                           
  4460                           ;dspTask.c: 57:         lcdWriteDspData(dig2 + 0x30);
  4461  0093' 0140               	movlb	0	; select bank0
  4462  0094' 0808'              	movf	dspTaskW_OnLCD@dig2,w
  4463  0095' 3E30               	addlw	48
  4464  0096' 3180' 2000' 3180'  	fcall	_lcdWriteDspData
  4465  0099'                    l1385:
  4466                           
  4467                           ;dspTask.c: 58:         lcdWriteDspData(dig1 + 0x30);
  4468  0099' 0140               	movlb	0	; select bank0
  4469  009A' 0807'              	movf	dspTaskW_OnLCD@dig1,w
  4470  009B' 3E30               	addlw	48
  4471  009C' 3180' 2000' 3180'  	fcall	_lcdWriteDspData
  4472  009F'                    l1387:
  4473                           
  4474                           ;dspTask.c: 59:         lcdWriteDspData(dig0 + 0x30);
  4475  009F' 0140               	movlb	0	; select bank0
  4476  00A0' 0806'              	movf	dspTaskW_OnLCD@dig0,w
  4477  00A1' 3E30               	addlw	48
  4478  00A2' 3180' 2000' 3180'  	fcall	_lcdWriteDspData
  4479  00A5'                    l138:
  4480  00A5' 0008               	return
  4481  00A6'                    __end_of_dspTaskW_OnLCD:
  4482                           
  4483                           	psect	text9
  4484  0000'                    __ptext9:	
  4485 ;; *************** function _lcdWriteDspData *****************
  4486 ;; Defined at:
  4487 ;;		line 46 in file "lcd.c"
  4488 ;; Parameters:    Size  Location     Type
  4489 ;;  x               1    wreg     unsigned char 
  4490 ;; Auto vars:     Size  Location     Type
  4491 ;;  x               1    6[COMMON] unsigned char 
  4492 ;;  lower_nibble    1    5[COMMON] unsigned char 
  4493 ;;  upper_nibble    1    4[COMMON] unsigned char 
  4494 ;; Return value:  Size  Location     Type
  4495 ;;                  1    wreg      void 
  4496 ;; Registers used:
  4497 ;;		wreg, status,2, status,0, pclath, cstack
  4498 ;; Tracked objects:
  4499 ;;		On entry : 0/0
  4500 ;;		On exit  : 0/0
  4501 ;;		Unchanged: 0/0
  4502 ;; Data sizes:     COMMON   BANK0   BANK1   BANK2   BANK3   BANK4   BANK5   BANK6   BANK7   BANK8   BANK9  BANK10  BANK1
      +1  BANK12  BANK13  BANK14  BANK15  BANK16  BANK17  BANK18  BANK19  BANK20  BANK21  BANK22  BANK23  BANK24  BANK25  BANK2
      +6  BANK27  BANK28  BANK29  BANK30  BANK31  BANK32  BANK33  BANK34  BANK35  BANK36  BANK37  BANK38  BANK39  BANK40  BANK4
      +1  BANK42  BANK43  BANK44  BANK45  BANK46  BANK47  BANK48  BANK49  BANK50
  4503 ;;      Params:         0       0       0       0       0       0       0       0       0       0       0       0       
      +0       0       0       0       0       0       0       0       0       0       0       0       0       0       0       
      +0       0       0       0       0       0       0       0       0       0       0       0       0       0       0       
      +0       0       0       0       0       0       0       0       0       0
  4504 ;;      Locals:         3       0       0       0       0       0       0       0       0       0       0       0       
      +0       0       0       0       0       0       0       0       0       0       0       0       0       0       0       
      +0       0       0       0       0       0       0       0       0       0       0       0       0       0       0       
      +0       0       0       0       0       0       0       0       0       0
  4505 ;;      Temps:          1       0       0       0       0       0       0       0       0       0       0       0       
      +0       0       0       0       0       0       0       0       0       0       0       0       0       0       0       
      +0       0       0       0       0       0       0       0       0       0       0       0       0       0       0       
      +0       0       0       0       0       0       0       0       0       0
  4506 ;;      Totals:         4       0       0       0       0       0       0       0       0       0       0       0       
      +0       0       0       0       0       0       0       0       0       0       0       0       0       0       0       
      +0       0       0       0       0       0       0       0       0       0       0       0       0       0       0       
      +0       0       0       0       0       0       0       0       0       0
  4507 ;;Total ram usage:        4 bytes
  4508 ;; Hardware stack levels used: 1
  4509 ;; Hardware stack levels required when called: 1
  4510 ;; This function calls:
  4511 ;;		_lcdWriteNibble
  4512 ;; This function is called by:
  4513 ;;		_main
  4514 ;;		_dspTaskW_OnLCD
  4515 ;; This function uses a non-reentrant model
  4516 ;;
  4517                           
  4518  0000'                    _lcdWriteDspData:	
  4519                           ;psect for function _lcdWriteDspData
  4520                           
  4521                           
  4522                           ;incstack = 0
  4523                           ; Regs used in _lcdWriteDspData: [wreg+status,2+status,0+pclath+cstack]
  4524                           ;lcdWriteDspData@x stored from wreg
  4525  0000' 0086'              	movwf	lcdWriteDspData@x
  4526  0001'                    l1183:
  4527                           
  4528                           ;lcd.c: 46: void lcdWriteDspData(char x);lcd.c: 47: {;lcd.c: 48:     char upper_nibble, 
      +                          lower_nibble;;lcd.c: 49:     upper_nibble = (x & 0b11110000) >> 4;
  4529  0001' 0806'              	movf	lcdWriteDspData@x,w
  4530  0002' 0083'              	movwf	??_lcdWriteDspData
  4531  0003' 3004               	movlw	4
  4532  0004'                    u625:
  4533  0004' 3683'              	lsrf	??_lcdWriteDspData,f
  4534  0005' 0B89               	decfsz	9,f
  4535  0006' 2800'              	goto	u625
  4536  0007' 0803'              	movf	??_lcdWriteDspData,w
  4537  0008' 390F               	andlw	15
  4538  0009' 0084'              	movwf	lcdWriteDspData@upper_nibble
  4539  000A'                    l1185:
  4540                           
  4541                           ;lcd.c: 50:     lower_nibble = x & 0b00001111;
  4542  000A' 0806'              	movf	lcdWriteDspData@x,w
  4543  000B' 390F               	andlw	15
  4544  000C' 0085'              	movwf	lcdWriteDspData@lower_nibble
  4545  000D'                    l1187:
  4546                           
  4547                           ;lcd.c: 51:     PORTEbits.RE1 = 1;
  4548  000D' 0140               	movlb	0	; select bank0
  4549  000E' 1490               	bsf	16,1	;volatile
  4550  000F'                    l1189:
  4551                           
  4552                           ;lcd.c: 52:     lcdWriteNibble(upper_nibble);
  4553  000F' 0804'              	movf	lcdWriteDspData@upper_nibble,w
  4554  0010' 3180' 2000' 3180'  	fcall	_lcdWriteNibble
  4555  0013'                    l1191:
  4556                           
  4557                           ;lcd.c: 53:     lcdWriteNibble(lower_nibble);
  4558  0013' 0805'              	movf	lcdWriteDspData@lower_nibble,w
  4559  0014' 3180' 2000' 3180'  	fcall	_lcdWriteNibble
  4560  0017'                    l165:
  4561  0017' 0008               	return
  4562  0018'                    __end_of_lcdWriteDspData:
  4563                           
  4564                           	psect	text10
  4565  0000'                    __ptext10:	
  4566 ;; *************** function _lcdCtrl_SetPos *****************
  4567 ;; Defined at:
  4568 ;;		line 68 in file "lcd.c"
  4569 ;; Parameters:    Size  Location     Type
  4570 ;;  row             1    wreg     unsigned char 
  4571 ;;  col             1    7[COMMON] unsigned char 
  4572 ;; Auto vars:     Size  Location     Type
  4573 ;;  row             1    8[COMMON] unsigned char 
  4574 ;;  ramAddr         1    9[COMMON] unsigned char 
  4575 ;; Return value:  Size  Location     Type
  4576 ;;                  1    wreg      void 
  4577 ;; Registers used:
  4578 ;;		wreg, status,2, status,0, pclath, cstack
  4579 ;; Tracked objects:
  4580 ;;		On entry : 0/0
  4581 ;;		On exit  : 0/0
  4582 ;;		Unchanged: 0/0
  4583 ;; Data sizes:     COMMON   BANK0   BANK1   BANK2   BANK3   BANK4   BANK5   BANK6   BANK7   BANK8   BANK9  BANK10  BANK1
      +1  BANK12  BANK13  BANK14  BANK15  BANK16  BANK17  BANK18  BANK19  BANK20  BANK21  BANK22  BANK23  BANK24  BANK25  BANK2
      +6  BANK27  BANK28  BANK29  BANK30  BANK31  BANK32  BANK33  BANK34  BANK35  BANK36  BANK37  BANK38  BANK39  BANK40  BANK4
      +1  BANK42  BANK43  BANK44  BANK45  BANK46  BANK47  BANK48  BANK49  BANK50
  4584 ;;      Params:         1       0       0       0       0       0       0       0       0       0       0       0       
      +0       0       0       0       0       0       0       0       0       0       0       0       0       0       0       
      +0       0       0       0       0       0       0       0       0       0       0       0       0       0       0       
      +0       0       0       0       0       0       0       0       0       0
  4585 ;;      Locals:         2       0       0       0       0       0       0       0       0       0       0       0       
      +0       0       0       0       0       0       0       0       0       0       0       0       0       0       0       
      +0       0       0       0       0       0       0       0       0       0       0       0       0       0       0       
      +0       0       0       0       0       0       0       0       0       0
  4586 ;;      Temps:          0       0       0       0       0       0       0       0       0       0       0       0       
      +0       0       0       0       0       0       0       0       0       0       0       0       0       0       0       
      +0       0       0       0       0       0       0       0       0       0       0       0       0       0       0       
      +0       0       0       0       0       0       0       0       0       0
  4587 ;;      Totals:         3       0       0       0       0       0       0       0       0       0       0       0       
      +0       0       0       0       0       0       0       0       0       0       0       0       0       0       0       
      +0       0       0       0       0       0       0       0       0       0       0       0       0       0       0       
      +0       0       0       0       0       0       0       0       0       0
  4588 ;;Total ram usage:        3 bytes
  4589 ;; Hardware stack levels used: 1
  4590 ;; Hardware stack levels required when called: 2
  4591 ;; This function calls:
  4592 ;;		_lcdWriteCtrlWord
  4593 ;; This function is called by:
  4594 ;;		_main
  4595 ;;		_dspTaskW_OnLCD
  4596 ;; This function uses a non-reentrant model
  4597 ;;
  4598                           
  4599  0000'                    _lcdCtrl_SetPos:	
  4600                           ;psect for function _lcdCtrl_SetPos
  4601                           
  4602                           
  4603                           ;incstack = 0
  4604                           ; Regs used in _lcdCtrl_SetPos: [wreg+status,2+status,0+pclath+cstack]
  4605                           ;lcdCtrl_SetPos@row stored from wreg
  4606  0000' 0088'              	movwf	lcdCtrl_SetPos@row
  4607  0001'                    l1175:
  4608                           
  4609                           ;lcd.c: 68: void lcdCtrl_SetPos(unsigned char row, unsigned char col);lcd.c: 69: {;lcd.c
      +                          : 70:     unsigned char ramAddr;;lcd.c: 71:     if (row == 1)
  4610  0001' 0308'              	decf	lcdCtrl_SetPos@row,w
  4611  0002' 1D03               	btfss	3,2
  4612  0003' 2800'              	goto	u611
  4613  0004' 2800'              	goto	u610
  4614  0005'                    u611:
  4615  0005' 2800'              	goto	l1179
  4616  0006'                    u610:
  4617  0006'                    l1177:
  4618                           
  4619                           ;lcd.c: 72:         ramAddr = col - 1;
  4620  0006' 0807'              	movf	lcdCtrl_SetPos@col,w
  4621  0007' 3EFF               	addlw	255
  4622  0008' 0089'              	movwf	lcdCtrl_SetPos@ramAddr
  4623  0009' 2800'              	goto	l1181
  4624  000A'                    l1179:
  4625                           
  4626                           ;lcd.c: 74:         ramAddr = 0x40 + col - 1;
  4627  000A' 0807'              	movf	lcdCtrl_SetPos@col,w
  4628  000B' 3E3F               	addlw	63
  4629  000C' 0089'              	movwf	lcdCtrl_SetPos@ramAddr
  4630  000D'                    l1181:
  4631                           
  4632                           ;lcd.c: 76:      lcdWriteCtrlWord(0x80 + ramAddr);
  4633  000D' 0809'              	movf	lcdCtrl_SetPos@ramAddr,w
  4634  000E' 3E80               	addlw	128
  4635  000F' 3180' 2000' 3180'  	fcall	_lcdWriteCtrlWord
  4636  0012'                    l173:
  4637  0012' 0008               	return
  4638  0013'                    __end_of_lcdCtrl_SetPos:
  4639                           
  4640                           	psect	text11
  4641  0000'                    __ptext11:	
  4642 ;; *************** function _lcdWriteCtrlWord *****************
  4643 ;; Defined at:
  4644 ;;		line 38 in file "lcd.c"
  4645 ;; Parameters:    Size  Location     Type
  4646 ;;  x               1    wreg     unsigned char 
  4647 ;; Auto vars:     Size  Location     Type
  4648 ;;  x               1    6[COMMON] unsigned char 
  4649 ;;  lower_nibble    1    5[COMMON] unsigned char 
  4650 ;;  upper_nibble    1    4[COMMON] unsigned char 
  4651 ;; Return value:  Size  Location     Type
  4652 ;;                  1    wreg      void 
  4653 ;; Registers used:
  4654 ;;		wreg, status,2, status,0, pclath, cstack
  4655 ;; Tracked objects:
  4656 ;;		On entry : 0/0
  4657 ;;		On exit  : 0/0
  4658 ;;		Unchanged: 0/0
  4659 ;; Data sizes:     COMMON   BANK0   BANK1   BANK2   BANK3   BANK4   BANK5   BANK6   BANK7   BANK8   BANK9  BANK10  BANK1
      +1  BANK12  BANK13  BANK14  BANK15  BANK16  BANK17  BANK18  BANK19  BANK20  BANK21  BANK22  BANK23  BANK24  BANK25  BANK2
      +6  BANK27  BANK28  BANK29  BANK30  BANK31  BANK32  BANK33  BANK34  BANK35  BANK36  BANK37  BANK38  BANK39  BANK40  BANK4
      +1  BANK42  BANK43  BANK44  BANK45  BANK46  BANK47  BANK48  BANK49  BANK50
  4660 ;;      Params:         0       0       0       0       0       0       0       0       0       0       0       0       
      +0       0       0       0       0       0       0       0       0       0       0       0       0       0       0       
      +0       0       0       0       0       0       0       0       0       0       0       0       0       0       0       
      +0       0       0       0       0       0       0       0       0       0
  4661 ;;      Locals:         3       0       0       0       0       0       0       0       0       0       0       0       
      +0       0       0       0       0       0       0       0       0       0       0       0       0       0       0       
      +0       0       0       0       0       0       0       0       0       0       0       0       0       0       0       
      +0       0       0       0       0       0       0       0       0       0
  4662 ;;      Temps:          1       0       0       0       0       0       0       0       0       0       0       0       
      +0       0       0       0       0       0       0       0       0       0       0       0       0       0       0       
      +0       0       0       0       0       0       0       0       0       0       0       0       0       0       0       
      +0       0       0       0       0       0       0       0       0       0
  4663 ;;      Totals:         4       0       0       0       0       0       0       0       0       0       0       0       
      +0       0       0       0       0       0       0       0       0       0       0       0       0       0       0       
      +0       0       0       0       0       0       0       0       0       0       0       0       0       0       0       
      +0       0       0       0       0       0       0       0       0       0
  4664 ;;Total ram usage:        4 bytes
  4665 ;; Hardware stack levels used: 1
  4666 ;; Hardware stack levels required when called: 1
  4667 ;; This function calls:
  4668 ;;		_lcdWriteNibble
  4669 ;; This function is called by:
  4670 ;;		_initLCD
  4671 ;;		_lcdCtrl_SetPos
  4672 ;;		_lcdCtrl_FunctionSet
  4673 ;;		_lcdCtrl_OnOffDisplay
  4674 ;;		_lcdCtrl_SetEntryMode
  4675 ;;		_lcdCtrl_ClearDisplay
  4676 ;; This function uses a non-reentrant model
  4677 ;;
  4678                           
  4679  0000'                    _lcdWriteCtrlWord:	
  4680                           ;psect for function _lcdWriteCtrlWord
  4681                           
  4682                           
  4683                           ;incstack = 0
  4684                           ; Regs used in _lcdWriteCtrlWord: [wreg+status,2+status,0+pclath+cstack]
  4685                           ;lcdWriteCtrlWord@x stored from wreg
  4686  0000' 0086'              	movwf	lcdWriteCtrlWord@x
  4687  0001'                    l1145:
  4688                           
  4689                           ;lcd.c: 39:     char upper_nibble, lower_nibble;;lcd.c: 40:     upper_nibble = (x & 0b11
      +                          110000) >> 4;
  4690  0001' 0806'              	movf	lcdWriteCtrlWord@x,w
  4691  0002' 0083'              	movwf	??_lcdWriteCtrlWord
  4692  0003' 3004               	movlw	4
  4693  0004'                    u585:
  4694  0004' 3683'              	lsrf	??_lcdWriteCtrlWord,f
  4695  0005' 0B89               	decfsz	9,f
  4696  0006' 2800'              	goto	u585
  4697  0007' 0803'              	movf	??_lcdWriteCtrlWord,w
  4698  0008' 390F               	andlw	15
  4699  0009' 0084'              	movwf	lcdWriteCtrlWord@upper_nibble
  4700  000A'                    l1147:
  4701                           
  4702                           ;lcd.c: 41:     lower_nibble = x & 0b00001111;
  4703  000A' 0806'              	movf	lcdWriteCtrlWord@x,w
  4704  000B' 390F               	andlw	15
  4705  000C' 0085'              	movwf	lcdWriteCtrlWord@lower_nibble
  4706  000D'                    l1149:
  4707                           
  4708                           ;lcd.c: 42:     PORTEbits.RE1 = 0;
  4709  000D' 0140               	movlb	0	; select bank0
  4710  000E' 1090               	bcf	16,1	;volatile
  4711  000F'                    l1151:
  4712                           
  4713                           ;lcd.c: 43:     lcdWriteNibble(upper_nibble);
  4714  000F' 0804'              	movf	lcdWriteCtrlWord@upper_nibble,w
  4715  0010' 3180' 2000' 3180'  	fcall	_lcdWriteNibble
  4716  0013'                    l1153:
  4717                           
  4718                           ;lcd.c: 44:     lcdWriteNibble(lower_nibble);
  4719  0013' 0805'              	movf	lcdWriteCtrlWord@lower_nibble,w
  4720  0014' 3180' 2000' 3180'  	fcall	_lcdWriteNibble
  4721  0017'                    l162:
  4722  0017' 0008               	return
  4723  0018'                    __end_of_lcdWriteCtrlWord:
  4724                           
  4725                           	psect	text12
  4726  0000'                    __ptext12:	
  4727 ;; *************** function _lcdWriteNibble *****************
  4728 ;; Defined at:
  4729 ;;		line 55 in file "lcd.c"
  4730 ;; Parameters:    Size  Location     Type
  4731 ;;  nibble          1    wreg     unsigned char 
  4732 ;; Auto vars:     Size  Location     Type
  4733 ;;  nibble          1    2[COMMON] unsigned char 
  4734 ;; Return value:  Size  Location     Type
  4735 ;;                  1    wreg      void 
  4736 ;; Registers used:
  4737 ;;		wreg, status,2, status,0
  4738 ;; Tracked objects:
  4739 ;;		On entry : 0/0
  4740 ;;		On exit  : 0/0
  4741 ;;		Unchanged: 0/0
  4742 ;; Data sizes:     COMMON   BANK0   BANK1   BANK2   BANK3   BANK4   BANK5   BANK6   BANK7   BANK8   BANK9  BANK10  BANK1
      +1  BANK12  BANK13  BANK14  BANK15  BANK16  BANK17  BANK18  BANK19  BANK20  BANK21  BANK22  BANK23  BANK24  BANK25  BANK2
      +6  BANK27  BANK28  BANK29  BANK30  BANK31  BANK32  BANK33  BANK34  BANK35  BANK36  BANK37  BANK38  BANK39  BANK40  BANK4
      +1  BANK42  BANK43  BANK44  BANK45  BANK46  BANK47  BANK48  BANK49  BANK50
  4743 ;;      Params:         0       0       0       0       0       0       0       0       0       0       0       0       
      +0       0       0       0       0       0       0       0       0       0       0       0       0       0       0       
      +0       0       0       0       0       0       0       0       0       0       0       0       0       0       0       
      +0       0       0       0       0       0       0       0       0       0
  4744 ;;      Locals:         1       0       0       0       0       0       0       0       0       0       0       0       
      +0       0       0       0       0       0       0       0       0       0       0       0       0       0       0       
      +0       0       0       0       0       0       0       0       0       0       0       0       0       0       0       
      +0       0       0       0       0       0       0       0       0       0
  4745 ;;      Temps:          2       0       0       0       0       0       0       0       0       0       0       0       
      +0       0       0       0       0       0       0       0       0       0       0       0       0       0       0       
      +0       0       0       0       0       0       0       0       0       0       0       0       0       0       0       
      +0       0       0       0       0       0       0       0       0       0
  4746 ;;      Totals:         3       0       0       0       0       0       0       0       0       0       0       0       
      +0       0       0       0       0       0       0       0       0       0       0       0       0       0       0       
      +0       0       0       0       0       0       0       0       0       0       0       0       0       0       0       
      +0       0       0       0       0       0       0       0       0       0
  4747 ;;Total ram usage:        3 bytes
  4748 ;; Hardware stack levels used: 1
  4749 ;; This function calls:
  4750 ;;		Nothing
  4751 ;; This function is called by:
  4752 ;;		_lcdWriteCtrlWord
  4753 ;;		_lcdWriteDspData
  4754 ;; This function uses a non-reentrant model
  4755 ;;
  4756                           
  4757  0000'                    _lcdWriteNibble:	
  4758                           ;psect for function _lcdWriteNibble
  4759                           
  4760                           
  4761                           ;incstack = 0
  4762                           ; Regs used in _lcdWriteNibble: [wreg+status,2+status,0]
  4763                           ;lcdWriteNibble@nibble stored from wreg
  4764  0000' 0082'              	movwf	lcdWriteNibble@nibble
  4765  0001'                    l1135:
  4766                           
  4767                           ;lcd.c: 55: void lcdWriteNibble(char nibble);lcd.c: 56: {;lcd.c: 57:     PORTDbits.RD7 =
      +                           (nibble & 0b00001000) >> 3;
  4768  0001' 0802'              	movf	lcdWriteNibble@nibble,w
  4769  0002' 0080'              	movwf	??_lcdWriteNibble
  4770  0003' 3003               	movlw	3
  4771  0004'                    u565:
  4772  0004' 3680'              	lsrf	??_lcdWriteNibble,f
  4773  0005' 0B89               	decfsz	9,f
  4774  0006' 2800'              	goto	u565
  4775  0007' 0800'              	movf	??_lcdWriteNibble,w
  4776  0008' 3901               	andlw	1
  4777  0009' 0081'              	movwf	??_lcdWriteNibble+1
  4778  000A' 0C81'              	rrf	??_lcdWriteNibble+1,f
  4779  000B' 0C81'              	rrf	??_lcdWriteNibble+1,f
  4780  000C' 0140               	movlb	0	; select bank0
  4781  000D' 080F               	movf	15,w	;volatile
  4782  000E' 0601'              	xorwf	??_lcdWriteNibble+1,w
  4783  000F' 397F               	andlw	-129
  4784  0010' 0601'              	xorwf	??_lcdWriteNibble+1,w
  4785  0011' 008F               	movwf	15	;volatile
  4786                           
  4787                           ;lcd.c: 58:     PORTDbits.RD6 = (nibble & 0b00000100) >> 2;
  4788  0012' 0802'              	movf	lcdWriteNibble@nibble,w
  4789  0013' 0080'              	movwf	??_lcdWriteNibble
  4790  0014' 3002               	movlw	2
  4791  0015'                    u575:
  4792  0015' 3680'              	lsrf	??_lcdWriteNibble,f
  4793  0016' 0B89               	decfsz	9,f
  4794  0017' 2800'              	goto	u575
  4795  0018' 0800'              	movf	??_lcdWriteNibble,w
  4796  0019' 3901               	andlw	1
  4797  001A' 0081'              	movwf	??_lcdWriteNibble+1
  4798  001B' 0E81'              	swapf	??_lcdWriteNibble+1,f
  4799  001C' 0D81'              	rlf	??_lcdWriteNibble+1,f
  4800  001D' 0D81'              	rlf	??_lcdWriteNibble+1,f
  4801  001E' 080F               	movf	15,w	;volatile
  4802  001F' 0601'              	xorwf	??_lcdWriteNibble+1,w
  4803  0020' 39BF               	andlw	-65
  4804  0021' 0601'              	xorwf	??_lcdWriteNibble+1,w
  4805  0022' 008F               	movwf	15	;volatile
  4806                           
  4807                           ;lcd.c: 59:     PORTDbits.RD5 = (nibble & 0b00000010) >> 1;
  4808  0023' 3602'              	lsrf	lcdWriteNibble@nibble,w
  4809  0024' 3901               	andlw	1
  4810  0025' 0080'              	movwf	??_lcdWriteNibble
  4811  0026' 0E80'              	swapf	??_lcdWriteNibble,f
  4812  0027' 0D80'              	rlf	??_lcdWriteNibble,f
  4813  0028' 080F               	movf	15,w	;volatile
  4814  0029' 0600'              	xorwf	??_lcdWriteNibble,w
  4815  002A' 39DF               	andlw	-33
  4816  002B' 0600'              	xorwf	??_lcdWriteNibble,w
  4817  002C' 008F               	movwf	15	;volatile
  4818                           
  4819                           ;lcd.c: 60:     PORTDbits.RD4 = (nibble & 0b00000001);
  4820  002D' 0802'              	movf	lcdWriteNibble@nibble,w
  4821  002E' 3901               	andlw	1
  4822  002F' 0080'              	movwf	??_lcdWriteNibble
  4823  0030' 0E80'              	swapf	??_lcdWriteNibble,f
  4824  0031' 080F               	movf	15,w	;volatile
  4825  0032' 0600'              	xorwf	??_lcdWriteNibble,w
  4826  0033' 39EF               	andlw	-17
  4827  0034' 0600'              	xorwf	??_lcdWriteNibble,w
  4828  0035' 008F               	movwf	15	;volatile
  4829  0036'                    l1137:
  4830                           
  4831                           ;lcd.c: 61:     PORTEbits.RE0 = 1;
  4832  0036' 1410               	bsf	16,0	;volatile
  4833  0037'                    l1139:
  4834                           
  4835                           ;lcd.c: 62:     _delay((unsigned long)((1)*(4000000/4000.0)));
  4836  0037' 30C8               	movlw	200
  4837  0038'                    u1137:
  4838  0038' 3200               	nop2
  4839  0039' 0B89               	decfsz	9,f
  4840  003A' 2800'              	goto	u1137
  4841  003B'                    l1141:
  4842                           
  4843                           ;lcd.c: 63:     PORTEbits.RE0 = 0;
  4844  003B' 0140               	movlb	0	; select bank0
  4845  003C' 1010               	bcf	16,0	;volatile
  4846  003D'                    l1143:
  4847                           
  4848                           ;lcd.c: 64:     _delay((unsigned long)((1)*(4000000/4000.0)));
  4849  003D' 30C8               	movlw	200
  4850  003E'                    u1147:
  4851  003E' 3200               	nop2
  4852  003F' 0B89               	decfsz	9,f
  4853  0040' 2800'              	goto	u1147
  4854  0041'                    l168:
  4855  0041' 0008               	return
  4856  0042'                    __end_of_lcdWriteNibble:
  4857                           
  4858                           	psect	text13
  4859  0000'                    __ptext13:	
  4860 ;; *************** function _adc_GetWConversion *****************
  4861 ;; Defined at:
  4862 ;;		line 32 in file "adc.c"
  4863 ;; Parameters:    Size  Location     Type
  4864 ;;		None
  4865 ;; Auto vars:     Size  Location     Type
  4866 ;;  result          2    2[COMMON] unsigned int 
  4867 ;; Return value:  Size  Location     Type
  4868 ;;                  2    0[COMMON] unsigned int 
  4869 ;; Registers used:
  4870 ;;		wreg
  4871 ;; Tracked objects:
  4872 ;;		On entry : 0/0
  4873 ;;		On exit  : 0/0
  4874 ;;		Unchanged: 0/0
  4875 ;; Data sizes:     COMMON   BANK0   BANK1   BANK2   BANK3   BANK4   BANK5   BANK6   BANK7   BANK8   BANK9  BANK10  BANK1
      +1  BANK12  BANK13  BANK14  BANK15  BANK16  BANK17  BANK18  BANK19  BANK20  BANK21  BANK22  BANK23  BANK24  BANK25  BANK2
      +6  BANK27  BANK28  BANK29  BANK30  BANK31  BANK32  BANK33  BANK34  BANK35  BANK36  BANK37  BANK38  BANK39  BANK40  BANK4
      +1  BANK42  BANK43  BANK44  BANK45  BANK46  BANK47  BANK48  BANK49  BANK50
  4876 ;;      Params:         2       0       0       0       0       0       0       0       0       0       0       0       
      +0       0       0       0       0       0       0       0       0       0       0       0       0       0       0       
      +0       0       0       0       0       0       0       0       0       0       0       0       0       0       0       
      +0       0       0       0       0       0       0       0       0       0
  4877 ;;      Locals:         2       0       0       0       0       0       0       0       0       0       0       0       
      +0       0       0       0       0       0       0       0       0       0       0       0       0       0       0       
      +0       0       0       0       0       0       0       0       0       0       0       0       0       0       0       
      +0       0       0       0       0       0       0       0       0       0
  4878 ;;      Temps:          0       0       0       0       0       0       0       0       0       0       0       0       
      +0       0       0       0       0       0       0       0       0       0       0       0       0       0       0       
      +0       0       0       0       0       0       0       0       0       0       0       0       0       0       0       
      +0       0       0       0       0       0       0       0       0       0
  4879 ;;      Totals:         4       0       0       0       0       0       0       0       0       0       0       0       
      +0       0       0       0       0       0       0       0       0       0       0       0       0       0       0       
      +0       0       0       0       0       0       0       0       0       0       0       0       0       0       0       
      +0       0       0       0       0       0       0       0       0       0
  4880 ;;Total ram usage:        4 bytes
  4881 ;; Hardware stack levels used: 1
  4882 ;; This function calls:
  4883 ;;		Nothing
  4884 ;; This function is called by:
  4885 ;;		_dspTaskW_OnLCD
  4886 ;; This function uses a non-reentrant model
  4887 ;;
  4888                           
  4889  0000'                    _adc_GetWConversion:	
  4890                           ;psect for function _adc_GetWConversion
  4891                           
  4892  0000'                    l1165:	
  4893                           ;incstack = 0
  4894                           ; Regs used in _adc_GetWConversion: [wreg]
  4895                           
  4896                           
  4897                           ;adc.c: 34:     unsigned int result;;adc.c: 35:     ADPCH = 0b00000011;
  4898  0000' 3003               	movlw	3
  4899  0001' 0141               	movlb	1	; select bank1
  4900  0002' 009E               	movwf	30	;volatile
  4901  0003'                    l1167:
  4902                           
  4903                           ;adc.c: 36:     _delay((unsigned long)((2)*(4000000/4000000.0)));
  4904  0003' 3200               	nop2	;2 cycle nop
  4905  0004'                    l1169:
  4906                           
  4907                           ;adc.c: 37:     ADCON0bits.ADGO = 1;
  4908  0004' 0141               	movlb	1	; select bank1
  4909  0005' 1413               	bsf	19,0	;volatile
  4910  0006'                    l30:	
  4911                           ;adc.c: 38:     while(ADCON0bits.ADGO == 1);
  4912                           
  4913  0006' 1813               	btfsc	19,0	;volatile
  4914  0007' 2800'              	goto	u601
  4915  0008' 2800'              	goto	u600
  4916  0009'                    u601:
  4917  0009' 2800'              	goto	l30
  4918  000A'                    u600:
  4919  000A'                    l1171:
  4920                           
  4921                           ;adc.c: 39:     result = ADRESH*256+ADRESL ;
  4922  000A' 080D               	movf	13,w	;volatile
  4923  000B' 0083'              	movwf	adc_GetWConversion@result+1
  4924  000C' 080C               	movf	12,w	;volatile
  4925  000D' 0082'              	movwf	adc_GetWConversion@result
  4926                           
  4927                           ;adc.c: 40:     return (result);
  4928  000E' 0803'              	movf	adc_GetWConversion@result+1,w
  4929  000F' 0081'              	movwf	?_adc_GetWConversion+1
  4930  0010' 0802'              	movf	adc_GetWConversion@result,w
  4931  0011' 0080'              	movwf	?_adc_GetWConversion
  4932  0012'                    l33:
  4933  0012' 0008               	return
  4934  0013'                    __end_of_adc_GetWConversion:
  4935                           
  4936                           	psect	text14
  4937  0000'                    __ptext14:	
  4938 ;; *************** function ___awmod *****************
  4939 ;; Defined at:
  4940 ;;		line 5 in file "C:\Program Files\Microchip\xc8\v2.41\pic\sources\c99\common\awmod.c"
  4941 ;; Parameters:    Size  Location     Type
  4942 ;;  divisor         2    9[COMMON] int 
  4943 ;;  dividend        2   11[COMMON] int 
  4944 ;; Auto vars:     Size  Location     Type
  4945 ;;  sign            1    1[BANK0 ] unsigned char 
  4946 ;;  counter         1    0[BANK0 ] unsigned char 
  4947 ;; Return value:  Size  Location     Type
  4948 ;;                  2    9[COMMON] int 
  4949 ;; Registers used:
  4950 ;;		wreg, status,2, status,0
  4951 ;; Tracked objects:
  4952 ;;		On entry : 0/0
  4953 ;;		On exit  : 0/0
  4954 ;;		Unchanged: 0/0
  4955 ;; Data sizes:     COMMON   BANK0   BANK1   BANK2   BANK3   BANK4   BANK5   BANK6   BANK7   BANK8   BANK9  BANK10  BANK1
      +1  BANK12  BANK13  BANK14  BANK15  BANK16  BANK17  BANK18  BANK19  BANK20  BANK21  BANK22  BANK23  BANK24  BANK25  BANK2
      +6  BANK27  BANK28  BANK29  BANK30  BANK31  BANK32  BANK33  BANK34  BANK35  BANK36  BANK37  BANK38  BANK39  BANK40  BANK4
      +1  BANK42  BANK43  BANK44  BANK45  BANK46  BANK47  BANK48  BANK49  BANK50
  4956 ;;      Params:         4       0       0       0       0       0       0       0       0       0       0       0       
      +0       0       0       0       0       0       0       0       0       0       0       0       0       0       0       
      +0       0       0       0       0       0       0       0       0       0       0       0       0       0       0       
      +0       0       0       0       0       0       0       0       0       0
  4957 ;;      Locals:         0       2       0       0       0       0       0       0       0       0       0       0       
      +0       0       0       0       0       0       0       0       0       0       0       0       0       0       0       
      +0       0       0       0       0       0       0       0       0       0       0       0       0       0       0       
      +0       0       0       0       0       0       0       0       0       0
  4958 ;;      Temps:          1       0       0       0       0       0       0       0       0       0       0       0       
      +0       0       0       0       0       0       0       0       0       0       0       0       0       0       0       
      +0       0       0       0       0       0       0       0       0       0       0       0       0       0       0       
      +0       0       0       0       0       0       0       0       0       0
  4959 ;;      Totals:         5       2       0       0       0       0       0       0       0       0       0       0       
      +0       0       0       0       0       0       0       0       0       0       0       0       0       0       0       
      +0       0       0       0       0       0       0       0       0       0       0       0       0       0       0       
      +0       0       0       0       0       0       0       0       0       0
  4960 ;;Total ram usage:        7 bytes
  4961 ;; Hardware stack levels used: 1
  4962 ;; This function calls:
  4963 ;;		Nothing
  4964 ;; This function is called by:
  4965 ;;		_dspTaskW_OnLCD
  4966 ;; This function uses a non-reentrant model
  4967 ;;
  4968                           
  4969  0000'                    ___awmod:	
  4970                           ;psect for function ___awmod
  4971                           
  4972  0000'                    l1269:	
  4973                           ;incstack = 0
  4974                           ; Regs used in ___awmod: [wreg+status,2+status,0]
  4975                           
  4976  0000' 0140               	movlb	0	; select bank0
  4977  0001' 0181'              	clrf	___awmod@sign
  4978  0002'                    l1271:
  4979  0002' 1F8C'              	btfss	___awmod@dividend+1,7
  4980  0003' 2800'              	goto	u791
  4981  0004' 2800'              	goto	u790
  4982  0005'                    u791:
  4983  0005' 2800'              	goto	l1277
  4984  0006'                    u790:
  4985  0006'                    l1273:
  4986  0006' 098B'              	comf	___awmod@dividend,f
  4987  0007' 098C'              	comf	___awmod@dividend+1,f
  4988  0008' 0A8B'              	incf	___awmod@dividend,f
  4989  0009' 1903               	skipnz
  4990  000A' 0A8C'              	incf	___awmod@dividend+1,f
  4991  000B'                    l1275:
  4992  000B' 0181'              	clrf	___awmod@sign
  4993  000C' 0A81'              	incf	___awmod@sign,f
  4994  000D'                    l1277:
  4995  000D' 1F8A'              	btfss	___awmod@divisor+1,7
  4996  000E' 2800'              	goto	u801
  4997  000F' 2800'              	goto	u800
  4998  0010'                    u801:
  4999  0010' 2800'              	goto	l1281
  5000  0011'                    u800:
  5001  0011'                    l1279:
  5002  0011' 0989'              	comf	___awmod@divisor,f
  5003  0012' 098A'              	comf	___awmod@divisor+1,f
  5004  0013' 0A89'              	incf	___awmod@divisor,f
  5005  0014' 1903               	skipnz
  5006  0015' 0A8A'              	incf	___awmod@divisor+1,f
  5007  0016'                    l1281:
  5008  0016' 0809'              	movf	___awmod@divisor,w
  5009  0017' 040A'              	iorwf	___awmod@divisor+1,w
  5010  0018' 1903               	btfsc	3,2
  5011  0019' 2800'              	goto	u811
  5012  001A' 2800'              	goto	u810
  5013  001B'                    u811:
  5014  001B' 2800'              	goto	l1299
  5015  001C'                    u810:
  5016  001C'                    l1283:
  5017  001C' 0180'              	clrf	___awmod@counter
  5018  001D' 0A80'              	incf	___awmod@counter,f
  5019  001E' 2800'              	goto	l1289
  5020  001F'                    l1285:
  5021  001F' 3001               	movlw	1
  5022  0020'                    u825:
  5023  0020' 3589'              	lslf	___awmod@divisor,f
  5024  0021' 0D8A'              	rlf	___awmod@divisor+1,f
  5025  0022' 0B89               	decfsz	9,f
  5026  0023' 2800'              	goto	u825
  5027  0024'                    l1287:
  5028  0024' 3001               	movlw	1
  5029  0025' 008D'              	movwf	??___awmod
  5030  0026' 080D'              	movf	??___awmod,w
  5031  0027' 0780'              	addwf	___awmod@counter,f
  5032  0028'                    l1289:
  5033  0028' 1F8A'              	btfss	___awmod@divisor+1,7
  5034  0029' 2800'              	goto	u831
  5035  002A' 2800'              	goto	u830
  5036  002B'                    u831:
  5037  002B' 2800'              	goto	l1285
  5038  002C'                    u830:
  5039  002C'                    l1291:
  5040  002C' 080A'              	movf	___awmod@divisor+1,w
  5041  002D' 020C'              	subwf	___awmod@dividend+1,w
  5042  002E' 1D03               	skipz
  5043  002F' 2800'              	goto	u845
  5044  0030' 0809'              	movf	___awmod@divisor,w
  5045  0031' 020B'              	subwf	___awmod@dividend,w
  5046  0032'                    u845:
  5047  0032' 1C03               	skipc
  5048  0033' 2800'              	goto	u841
  5049  0034' 2800'              	goto	u840
  5050  0035'                    u841:
  5051  0035' 2800'              	goto	l1295
  5052  0036'                    u840:
  5053  0036'                    l1293:
  5054  0036' 0809'              	movf	___awmod@divisor,w
  5055  0037' 028B'              	subwf	___awmod@dividend,f
  5056  0038' 080A'              	movf	___awmod@divisor+1,w
  5057  0039' 3B8C'              	subwfb	___awmod@dividend+1,f
  5058  003A'                    l1295:
  5059  003A' 3001               	movlw	1
  5060  003B'                    u855:
  5061  003B' 368A'              	lsrf	___awmod@divisor+1,f
  5062  003C' 0C89'              	rrf	___awmod@divisor,f
  5063  003D' 0B89               	decfsz	9,f
  5064  003E' 2800'              	goto	u855
  5065  003F'                    l1297:
  5066  003F' 3001               	movlw	1
  5067  0040' 0280'              	subwf	___awmod@counter,f
  5068  0041' 1D03               	btfss	3,2
  5069  0042' 2800'              	goto	u861
  5070  0043' 2800'              	goto	u860
  5071  0044'                    u861:
  5072  0044' 2800'              	goto	l1291
  5073  0045'                    u860:
  5074  0045'                    l1299:
  5075  0045' 0801'              	movf	___awmod@sign,w
  5076  0046' 1903               	btfsc	3,2
  5077  0047' 2800'              	goto	u871
  5078  0048' 2800'              	goto	u870
  5079  0049'                    u871:
  5080  0049' 2800'              	goto	l1303
  5081  004A'                    u870:
  5082  004A'                    l1301:
  5083  004A' 098B'              	comf	___awmod@dividend,f
  5084  004B' 098C'              	comf	___awmod@dividend+1,f
  5085  004C' 0A8B'              	incf	___awmod@dividend,f
  5086  004D' 1903               	skipnz
  5087  004E' 0A8C'              	incf	___awmod@dividend+1,f
  5088  004F'                    l1303:
  5089  004F' 080C'              	movf	___awmod@dividend+1,w
  5090  0050' 008A'              	movwf	?___awmod+1
  5091  0051' 080B'              	movf	___awmod@dividend,w
  5092  0052' 0089'              	movwf	?___awmod
  5093  0053'                    l505:
  5094  0053' 0008               	return
  5095  0054'                    __end_of___awmod:
  5096                           
  5097                           	psect	text15
  5098  0000'                    __ptext15:	
  5099 ;; *************** function ___awdiv *****************
  5100 ;; Defined at:
  5101 ;;		line 5 in file "C:\Program Files\Microchip\xc8\v2.41\pic\sources\c99\common\awdiv.c"
  5102 ;; Parameters:    Size  Location     Type
  5103 ;;  divisor         2    0[COMMON] int 
  5104 ;;  dividend        2    2[COMMON] int 
  5105 ;; Auto vars:     Size  Location     Type
  5106 ;;  quotient        2    7[COMMON] int 
  5107 ;;  sign            1    6[COMMON] unsigned char 
  5108 ;;  counter         1    5[COMMON] unsigned char 
  5109 ;; Return value:  Size  Location     Type
  5110 ;;                  2    0[COMMON] int 
  5111 ;; Registers used:
  5112 ;;		wreg, status,2, status,0
  5113 ;; Tracked objects:
  5114 ;;		On entry : 0/0
  5115 ;;		On exit  : 0/0
  5116 ;;		Unchanged: 0/0
  5117 ;; Data sizes:     COMMON   BANK0   BANK1   BANK2   BANK3   BANK4   BANK5   BANK6   BANK7   BANK8   BANK9  BANK10  BANK1
      +1  BANK12  BANK13  BANK14  BANK15  BANK16  BANK17  BANK18  BANK19  BANK20  BANK21  BANK22  BANK23  BANK24  BANK25  BANK2
      +6  BANK27  BANK28  BANK29  BANK30  BANK31  BANK32  BANK33  BANK34  BANK35  BANK36  BANK37  BANK38  BANK39  BANK40  BANK4
      +1  BANK42  BANK43  BANK44  BANK45  BANK46  BANK47  BANK48  BANK49  BANK50
  5118 ;;      Params:         4       0       0       0       0       0       0       0       0       0       0       0       
      +0       0       0       0       0       0       0       0       0       0       0       0       0       0       0       
      +0       0       0       0       0       0       0       0       0       0       0       0       0       0       0       
      +0       0       0       0       0       0       0       0       0       0
  5119 ;;      Locals:         4       0       0       0       0       0       0       0       0       0       0       0       
      +0       0       0       0       0       0       0       0       0       0       0       0       0       0       0       
      +0       0       0       0       0       0       0       0       0       0       0       0       0       0       0       
      +0       0       0       0       0       0       0       0       0       0
  5120 ;;      Temps:          1       0       0       0       0       0       0       0       0       0       0       0       
      +0       0       0       0       0       0       0       0       0       0       0       0       0       0       0       
      +0       0       0       0       0       0       0       0       0       0       0       0       0       0       0       
      +0       0       0       0       0       0       0       0       0       0
  5121 ;;      Totals:         9       0       0       0       0       0       0       0       0       0       0       0       
      +0       0       0       0       0       0       0       0       0       0       0       0       0       0       0       
      +0       0       0       0       0       0       0       0       0       0       0       0       0       0       0       
      +0       0       0       0       0       0       0       0       0       0
  5122 ;;Total ram usage:        9 bytes
  5123 ;; Hardware stack levels used: 1
  5124 ;; This function calls:
  5125 ;;		Nothing
  5126 ;; This function is called by:
  5127 ;;		_dspTaskW_OnLCD
  5128 ;; This function uses a non-reentrant model
  5129 ;;
  5130                           
  5131  0000'                    ___awdiv:	
  5132                           ;psect for function ___awdiv
  5133                           
  5134  0000'                    l1225:	
  5135                           ;incstack = 0
  5136                           ; Regs used in ___awdiv: [wreg+status,2+status,0]
  5137                           
  5138  0000' 0186'              	clrf	___awdiv@sign
  5139  0001'                    l1227:
  5140  0001' 1F81'              	btfss	___awdiv@divisor+1,7
  5141  0002' 2800'              	goto	u691
  5142  0003' 2800'              	goto	u690
  5143  0004'                    u691:
  5144  0004' 2800'              	goto	l1233
  5145  0005'                    u690:
  5146  0005'                    l1229:
  5147  0005' 0980'              	comf	___awdiv@divisor,f
  5148  0006' 0981'              	comf	___awdiv@divisor+1,f
  5149  0007' 0A80'              	incf	___awdiv@divisor,f
  5150  0008' 1903               	skipnz
  5151  0009' 0A81'              	incf	___awdiv@divisor+1,f
  5152  000A'                    l1231:
  5153  000A' 0186'              	clrf	___awdiv@sign
  5154  000B' 0A86'              	incf	___awdiv@sign,f
  5155  000C'                    l1233:
  5156  000C' 1F83'              	btfss	___awdiv@dividend+1,7
  5157  000D' 2800'              	goto	u701
  5158  000E' 2800'              	goto	u700
  5159  000F'                    u701:
  5160  000F' 2800'              	goto	l1239
  5161  0010'                    u700:
  5162  0010'                    l1235:
  5163  0010' 0982'              	comf	___awdiv@dividend,f
  5164  0011' 0983'              	comf	___awdiv@dividend+1,f
  5165  0012' 0A82'              	incf	___awdiv@dividend,f
  5166  0013' 1903               	skipnz
  5167  0014' 0A83'              	incf	___awdiv@dividend+1,f
  5168  0015'                    l1237:
  5169  0015' 3001               	movlw	1
  5170  0016' 0084'              	movwf	??___awdiv
  5171  0017' 0804'              	movf	??___awdiv,w
  5172  0018' 0686'              	xorwf	___awdiv@sign,f
  5173  0019'                    l1239:
  5174  0019' 0187'              	clrf	___awdiv@quotient
  5175  001A' 0188'              	clrf	___awdiv@quotient+1
  5176  001B'                    l1241:
  5177  001B' 0800'              	movf	___awdiv@divisor,w
  5178  001C' 0401'              	iorwf	___awdiv@divisor+1,w
  5179  001D' 1903               	btfsc	3,2
  5180  001E' 2800'              	goto	u711
  5181  001F' 2800'              	goto	u710
  5182  0020'                    u711:
  5183  0020' 2800'              	goto	l1261
  5184  0021'                    u710:
  5185  0021'                    l1243:
  5186  0021' 0185'              	clrf	___awdiv@counter
  5187  0022' 0A85'              	incf	___awdiv@counter,f
  5188  0023' 2800'              	goto	l1249
  5189  0024'                    l1245:
  5190  0024' 3001               	movlw	1
  5191  0025'                    u725:
  5192  0025' 3580'              	lslf	___awdiv@divisor,f
  5193  0026' 0D81'              	rlf	___awdiv@divisor+1,f
  5194  0027' 0B89               	decfsz	9,f
  5195  0028' 2800'              	goto	u725
  5196  0029'                    l1247:
  5197  0029' 3001               	movlw	1
  5198  002A' 0084'              	movwf	??___awdiv
  5199  002B' 0804'              	movf	??___awdiv,w
  5200  002C' 0785'              	addwf	___awdiv@counter,f
  5201  002D'                    l1249:
  5202  002D' 1F81'              	btfss	___awdiv@divisor+1,7
  5203  002E' 2800'              	goto	u731
  5204  002F' 2800'              	goto	u730
  5205  0030'                    u731:
  5206  0030' 2800'              	goto	l1245
  5207  0031'                    u730:
  5208  0031'                    l1251:
  5209  0031' 3001               	movlw	1
  5210  0032'                    u745:
  5211  0032' 3587'              	lslf	___awdiv@quotient,f
  5212  0033' 0D88'              	rlf	___awdiv@quotient+1,f
  5213  0034' 0B89               	decfsz	9,f
  5214  0035' 2800'              	goto	u745
  5215  0036' 0801'              	movf	___awdiv@divisor+1,w
  5216  0037' 0203'              	subwf	___awdiv@dividend+1,w
  5217  0038' 1D03               	skipz
  5218  0039' 2800'              	goto	u755
  5219  003A' 0800'              	movf	___awdiv@divisor,w
  5220  003B' 0202'              	subwf	___awdiv@dividend,w
  5221  003C'                    u755:
  5222  003C' 1C03               	skipc
  5223  003D' 2800'              	goto	u751
  5224  003E' 2800'              	goto	u750
  5225  003F'                    u751:
  5226  003F' 2800'              	goto	l1257
  5227  0040'                    u750:
  5228  0040'                    l1253:
  5229  0040' 0800'              	movf	___awdiv@divisor,w
  5230  0041' 0282'              	subwf	___awdiv@dividend,f
  5231  0042' 0801'              	movf	___awdiv@divisor+1,w
  5232  0043' 3B83'              	subwfb	___awdiv@dividend+1,f
  5233  0044'                    l1255:
  5234  0044' 1407'              	bsf	___awdiv@quotient,0
  5235  0045'                    l1257:
  5236  0045' 3001               	movlw	1
  5237  0046'                    u765:
  5238  0046' 3681'              	lsrf	___awdiv@divisor+1,f
  5239  0047' 0C80'              	rrf	___awdiv@divisor,f
  5240  0048' 0B89               	decfsz	9,f
  5241  0049' 2800'              	goto	u765
  5242  004A'                    l1259:
  5243  004A' 3001               	movlw	1
  5244  004B' 0285'              	subwf	___awdiv@counter,f
  5245  004C' 1D03               	btfss	3,2
  5246  004D' 2800'              	goto	u771
  5247  004E' 2800'              	goto	u770
  5248  004F'                    u771:
  5249  004F' 2800'              	goto	l1251
  5250  0050'                    u770:
  5251  0050'                    l1261:
  5252  0050' 0806'              	movf	___awdiv@sign,w
  5253  0051' 1903               	btfsc	3,2
  5254  0052' 2800'              	goto	u781
  5255  0053' 2800'              	goto	u780
  5256  0054'                    u781:
  5257  0054' 2800'              	goto	l1265
  5258  0055'                    u780:
  5259  0055'                    l1263:
  5260  0055' 0987'              	comf	___awdiv@quotient,f
  5261  0056' 0988'              	comf	___awdiv@quotient+1,f
  5262  0057' 0A87'              	incf	___awdiv@quotient,f
  5263  0058' 1903               	skipnz
  5264  0059' 0A88'              	incf	___awdiv@quotient+1,f
  5265  005A'                    l1265:
  5266  005A' 0808'              	movf	___awdiv@quotient+1,w
  5267  005B' 0081'              	movwf	?___awdiv+1
  5268  005C' 0807'              	movf	___awdiv@quotient,w
  5269  005D' 0080'              	movwf	?___awdiv
  5270  005E'                    l492:
  5271  005E' 0008               	return
  5272  005F'                    __end_of___awdiv:
  5273                           
  5274                           	psect	text16
  5275  0000'                    __ptext16:	
  5276 ;; *************** function _dspTaskT_Disp7Seg *****************
  5277 ;; Defined at:
  5278 ;;		line 26 in file "dspTask.c"
  5279 ;; Parameters:    Size  Location     Type
  5280 ;;		None
  5281 ;; Auto vars:     Size  Location     Type
  5282 ;;  count           2    4[BANK0 ] unsigned int 
  5283 ;;  temp            2    2[BANK0 ] unsigned int 
  5284 ;; Return value:  Size  Location     Type
  5285 ;;                  1    wreg      void 
  5286 ;; Registers used:
  5287 ;;		wreg, fsr0l, fsr0h, fsr1l, fsr1h, fsr1l, fsr1h, status,2, status,0, pclath, cstack
  5288 ;; Tracked objects:
  5289 ;;		On entry : 0/0
  5290 ;;		On exit  : 0/0
  5291 ;;		Unchanged: 0/0
  5292 ;; Data sizes:     COMMON   BANK0   BANK1   BANK2   BANK3   BANK4   BANK5   BANK6   BANK7   BANK8   BANK9  BANK10  BANK1
      +1  BANK12  BANK13  BANK14  BANK15  BANK16  BANK17  BANK18  BANK19  BANK20  BANK21  BANK22  BANK23  BANK24  BANK25  BANK2
      +6  BANK27  BANK28  BANK29  BANK30  BANK31  BANK32  BANK33  BANK34  BANK35  BANK36  BANK37  BANK38  BANK39  BANK40  BANK4
      +1  BANK42  BANK43  BANK44  BANK45  BANK46  BANK47  BANK48  BANK49  BANK50
  5293 ;;      Params:         0       0       0       0       0       0       0       0       0       0       0       0       
      +0       0       0       0       0       0       0       0       0       0       0       0       0       0       0       
      +0       0       0       0       0       0       0       0       0       0       0       0       0       0       0       
      +0       0       0       0       0       0       0       0       0       0
  5294 ;;      Locals:         0       4       0       0       0       0       0       0       0       0       0       0       
      +0       0       0       0       0       0       0       0       0       0       0       0       0       0       0       
      +0       0       0       0       0       0       0       0       0       0       0       0       0       0       0       
      +0       0       0       0       0       0       0       0       0       0
  5295 ;;      Temps:          0       2       0       0       0       0       0       0       0       0       0       0       
      +0       0       0       0       0       0       0       0       0       0       0       0       0       0       0       
      +0       0       0       0       0       0       0       0       0       0       0       0       0       0       0       
      +0       0       0       0       0       0       0       0       0       0
  5296 ;;      Totals:         0       6       0       0       0       0       0       0       0       0       0       0       
      +0       0       0       0       0       0       0       0       0       0       0       0       0       0       0       
      +0       0       0       0       0       0       0       0       0       0       0       0       0       0       0       
      +0       0       0       0       0       0       0       0       0       0
  5297 ;;Total ram usage:        6 bytes
  5298 ;; Hardware stack levels used: 1
  5299 ;; Hardware stack levels required when called: 1
  5300 ;; This function calls:
  5301 ;;		___lwdiv
  5302 ;;		___wmul
  5303 ;;		_adc_GetTConversion
  5304 ;;		_seg_DispAll
  5305 ;; This function is called by:
  5306 ;;		_main
  5307 ;; This function uses a non-reentrant model
  5308 ;;
  5309                           
  5310  0000'                    _dspTaskT_Disp7Seg:	
  5311                           ;psect for function _dspTaskT_Disp7Seg
  5312                           
  5313  0000'                    l1355:	
  5314                           ;incstack = 0
  5315                           ; Regs used in _dspTaskT_Disp7Seg: [allreg]
  5316                           
  5317                           
  5318                           ;dspTask.c: 28:     unsigned int temp;;dspTask.c: 29:     unsigned int count;;dspTask.c:
      +                           31:     if(adc_GetTConversion()==adc_GetTConversion()) {
  5319  0000' 3180' 2000' 3180'  	fcall	_adc_GetTConversion
  5320  0003' 0800'              	movf	?_adc_GetTConversion,w
  5321  0004' 0140               	movlb	0	; select bank0
  5322  0005' 0080'              	movwf	??_dspTaskT_Disp7Seg
  5323  0006' 0801'              	movf	?_adc_GetTConversion+1,w
  5324  0007' 0081'              	movwf	??_dspTaskT_Disp7Seg+1
  5325  0008' 3180' 2000' 3180'  	fcall	_adc_GetTConversion
  5326  000B' 0801'              	movf	?_adc_GetTConversion+1,w
  5327  000C' 0140               	movlb	0	; select bank0
  5328  000D' 0601'              	xorwf	??_dspTaskT_Disp7Seg+1,w
  5329  000E' 1D03               	skipz
  5330  000F' 2800'              	goto	u955
  5331  0010' 0800'              	movf	?_adc_GetTConversion,w
  5332  0011' 0600'              	xorwf	??_dspTaskT_Disp7Seg,w
  5333  0012'                    u955:
  5334  0012' 1D03               	skipz
  5335  0013' 2800'              	goto	u951
  5336  0014' 2800'              	goto	u950
  5337  0015'                    u951:
  5338  0015' 2800'              	goto	l134
  5339  0016'                    u950:
  5340  0016'                    l1357:
  5341                           
  5342                           ;dspTask.c: 33:         temp = adc_GetTConversion();
  5343  0016' 3180' 2000' 3180'  	fcall	_adc_GetTConversion
  5344  0019' 0801'              	movf	?_adc_GetTConversion+1,w
  5345  001A' 0140               	movlb	0	; select bank0
  5346  001B' 0083'              	movwf	dspTaskT_Disp7Seg@temp+1
  5347  001C' 0800'              	movf	?_adc_GetTConversion,w
  5348  001D' 0082'              	movwf	dspTaskT_Disp7Seg@temp
  5349  001E'                    l1359:
  5350                           
  5351                           ;dspTask.c: 34:         count =(temp * 500) / 1023;
  5352  001E' 30FF               	movlw	255
  5353  001F' 0086'              	movwf	___lwdiv@divisor
  5354  0020' 3003               	movlw	3
  5355  0021' 0087'              	movwf	___lwdiv@divisor+1
  5356  0022' 0803'              	movf	dspTaskT_Disp7Seg@temp+1,w
  5357  0023' 0081'              	movwf	___wmul@multiplier+1
  5358  0024' 0802'              	movf	dspTaskT_Disp7Seg@temp,w
  5359  0025' 0080'              	movwf	___wmul@multiplier
  5360  0026' 30F4               	movlw	244
  5361  0027' 0082'              	movwf	___wmul@multiplicand
  5362  0028' 3001               	movlw	1
  5363  0029' 0083'              	movwf	___wmul@multiplicand+1
  5364  002A' 3180' 2000' 3180'  	fcall	___wmul
  5365  002D' 0801'              	movf	?___wmul+1,w
  5366  002E' 0089'              	movwf	___lwdiv@dividend+1
  5367  002F' 0800'              	movf	?___wmul,w
  5368  0030' 0088'              	movwf	___lwdiv@dividend
  5369  0031' 3180' 2000' 3180'  	fcall	___lwdiv
  5370  0034' 0807'              	movf	?___lwdiv+1,w
  5371  0035' 0140               	movlb	0	; select bank0
  5372  0036' 0085'              	movwf	dspTaskT_Disp7Seg@count+1
  5373  0037' 0806'              	movf	?___lwdiv,w
  5374  0038' 0084'              	movwf	dspTaskT_Disp7Seg@count
  5375  0039'                    l1361:
  5376                           
  5377                           ;dspTask.c: 35:         count = count * 100;
  5378  0039' 0805'              	movf	dspTaskT_Disp7Seg@count+1,w
  5379  003A' 0081'              	movwf	___wmul@multiplier+1
  5380  003B' 0804'              	movf	dspTaskT_Disp7Seg@count,w
  5381  003C' 0080'              	movwf	___wmul@multiplier
  5382  003D' 3064               	movlw	100
  5383  003E' 0082'              	movwf	___wmul@multiplicand
  5384  003F' 3000               	movlw	0
  5385  0040' 0083'              	movwf	___wmul@multiplicand+1
  5386  0041' 3180' 2000' 3180'  	fcall	___wmul
  5387  0044' 0801'              	movf	?___wmul+1,w
  5388  0045' 0140               	movlb	0	; select bank0
  5389  0046' 0085'              	movwf	dspTaskT_Disp7Seg@count+1
  5390  0047' 0800'              	movf	?___wmul,w
  5391  0048' 0084'              	movwf	dspTaskT_Disp7Seg@count
  5392  0049'                    l1363:
  5393                           
  5394                           ;dspTask.c: 36:         seg_DispAll(count);
  5395  0049' 0805'              	movf	dspTaskT_Disp7Seg@count+1,w
  5396  004A' 0081'              	movwf	_seg_DispAll$0+1
  5397  004B' 0804'              	movf	dspTaskT_Disp7Seg@count,w
  5398  004C' 0080'              	movwf	_seg_DispAll$0
  5399  004D' 3180' 2000' 3180'  	fcall	_seg_DispAll
  5400  0050'                    l134:
  5401  0050' 0008               	return
  5402  0051'                    __end_of_dspTaskT_Disp7Seg:
  5403                           
  5404                           	psect	text17
  5405  0000'                    __ptext17:	
  5406 ;; *************** function _adc_GetTConversion *****************
  5407 ;; Defined at:
  5408 ;;		line 21 in file "adc.c"
  5409 ;; Parameters:    Size  Location     Type
  5410 ;;		None
  5411 ;; Auto vars:     Size  Location     Type
  5412 ;;  result          2    2[COMMON] unsigned int 
  5413 ;; Return value:  Size  Location     Type
  5414 ;;                  2    0[COMMON] unsigned int 
  5415 ;; Registers used:
  5416 ;;		wreg
  5417 ;; Tracked objects:
  5418 ;;		On entry : 0/0
  5419 ;;		On exit  : 0/0
  5420 ;;		Unchanged: 0/0
  5421 ;; Data sizes:     COMMON   BANK0   BANK1   BANK2   BANK3   BANK4   BANK5   BANK6   BANK7   BANK8   BANK9  BANK10  BANK1
      +1  BANK12  BANK13  BANK14  BANK15  BANK16  BANK17  BANK18  BANK19  BANK20  BANK21  BANK22  BANK23  BANK24  BANK25  BANK2
      +6  BANK27  BANK28  BANK29  BANK30  BANK31  BANK32  BANK33  BANK34  BANK35  BANK36  BANK37  BANK38  BANK39  BANK40  BANK4
      +1  BANK42  BANK43  BANK44  BANK45  BANK46  BANK47  BANK48  BANK49  BANK50
  5422 ;;      Params:         2       0       0       0       0       0       0       0       0       0       0       0       
      +0       0       0       0       0       0       0       0       0       0       0       0       0       0       0       
      +0       0       0       0       0       0       0       0       0       0       0       0       0       0       0       
      +0       0       0       0       0       0       0       0       0       0
  5423 ;;      Locals:         2       0       0       0       0       0       0       0       0       0       0       0       
      +0       0       0       0       0       0       0       0       0       0       0       0       0       0       0       
      +0       0       0       0       0       0       0       0       0       0       0       0       0       0       0       
      +0       0       0       0       0       0       0       0       0       0
  5424 ;;      Temps:          0       0       0       0       0       0       0       0       0       0       0       0       
      +0       0       0       0       0       0       0       0       0       0       0       0       0       0       0       
      +0       0       0       0       0       0       0       0       0       0       0       0       0       0       0       
      +0       0       0       0       0       0       0       0       0       0
  5425 ;;      Totals:         4       0       0       0       0       0       0       0       0       0       0       0       
      +0       0       0       0       0       0       0       0       0       0       0       0       0       0       0       
      +0       0       0       0       0       0       0       0       0       0       0       0       0       0       0       
      +0       0       0       0       0       0       0       0       0       0
  5426 ;;Total ram usage:        4 bytes
  5427 ;; Hardware stack levels used: 1
  5428 ;; This function calls:
  5429 ;;		Nothing
  5430 ;; This function is called by:
  5431 ;;		_dspTaskT_Disp7Seg
  5432 ;; This function uses a non-reentrant model
  5433 ;;
  5434                           
  5435  0000'                    _adc_GetTConversion:	
  5436                           ;psect for function _adc_GetTConversion
  5437                           
  5438  0000'                    l1155:	
  5439                           ;incstack = 0
  5440                           ; Regs used in _adc_GetTConversion: [wreg]
  5441                           
  5442                           
  5443                           ;adc.c: 23:     unsigned int result;;adc.c: 24:     ADPCH = 0b00000001;
  5444  0000' 3001               	movlw	1
  5445  0001' 0141               	movlb	1	; select bank1
  5446  0002' 009E               	movwf	30	;volatile
  5447  0003'                    l1157:
  5448                           
  5449                           ;adc.c: 25:     _delay((unsigned long)((2)*(4000000/4000000.0)));
  5450  0003' 3200               	nop2	;2 cycle nop
  5451  0004'                    l1159:
  5452                           
  5453                           ;adc.c: 26:     ADCON0bits.ADGO = 1;
  5454  0004' 0141               	movlb	1	; select bank1
  5455  0005' 1413               	bsf	19,0	;volatile
  5456  0006'                    l24:	
  5457                           ;adc.c: 27:     while(ADCON0bits.ADGO == 1);
  5458                           
  5459  0006' 1813               	btfsc	19,0	;volatile
  5460  0007' 2800'              	goto	u591
  5461  0008' 2800'              	goto	u590
  5462  0009'                    u591:
  5463  0009' 2800'              	goto	l24
  5464  000A'                    u590:
  5465  000A'                    l1161:
  5466                           
  5467                           ;adc.c: 28:     result = ADRESH*256+ADRESL ;
  5468  000A' 080D               	movf	13,w	;volatile
  5469  000B' 0083'              	movwf	adc_GetTConversion@result+1
  5470  000C' 080C               	movf	12,w	;volatile
  5471  000D' 0082'              	movwf	adc_GetTConversion@result
  5472                           
  5473                           ;adc.c: 29:     return (result);
  5474  000E' 0803'              	movf	adc_GetTConversion@result+1,w
  5475  000F' 0081'              	movwf	?_adc_GetTConversion+1
  5476  0010' 0802'              	movf	adc_GetTConversion@result,w
  5477  0011' 0080'              	movwf	?_adc_GetTConversion
  5478  0012'                    l27:
  5479  0012' 0008               	return
  5480  0013'                    __end_of_adc_GetTConversion:
  5481                           
  5482                           	psect	text18
  5483  0000'                    __ptext18:	
  5484 ;; *************** function ___wmul *****************
  5485 ;; Defined at:
  5486 ;;		line 15 in file "C:\Program Files\Microchip\xc8\v2.41\pic\sources\c99\common\Umul16.c"
  5487 ;; Parameters:    Size  Location     Type
  5488 ;;  multiplier      2    0[COMMON] unsigned int 
  5489 ;;  multiplicand    2    2[COMMON] unsigned int 
  5490 ;; Auto vars:     Size  Location     Type
  5491 ;;  product         2    4[COMMON] unsigned int 
  5492 ;; Return value:  Size  Location     Type
  5493 ;;                  2    0[COMMON] unsigned int 
  5494 ;; Registers used:
  5495 ;;		wreg, status,2, status,0
  5496 ;; Tracked objects:
  5497 ;;		On entry : 0/0
  5498 ;;		On exit  : 0/0
  5499 ;;		Unchanged: 0/0
  5500 ;; Data sizes:     COMMON   BANK0   BANK1   BANK2   BANK3   BANK4   BANK5   BANK6   BANK7   BANK8   BANK9  BANK10  BANK1
      +1  BANK12  BANK13  BANK14  BANK15  BANK16  BANK17  BANK18  BANK19  BANK20  BANK21  BANK22  BANK23  BANK24  BANK25  BANK2
      +6  BANK27  BANK28  BANK29  BANK30  BANK31  BANK32  BANK33  BANK34  BANK35  BANK36  BANK37  BANK38  BANK39  BANK40  BANK4
      +1  BANK42  BANK43  BANK44  BANK45  BANK46  BANK47  BANK48  BANK49  BANK50
  5501 ;;      Params:         4       0       0       0       0       0       0       0       0       0       0       0       
      +0       0       0       0       0       0       0       0       0       0       0       0       0       0       0       
      +0       0       0       0       0       0       0       0       0       0       0       0       0       0       0       
      +0       0       0       0       0       0       0       0       0       0
  5502 ;;      Locals:         2       0       0       0       0       0       0       0       0       0       0       0       
      +0       0       0       0       0       0       0       0       0       0       0       0       0       0       0       
      +0       0       0       0       0       0       0       0       0       0       0       0       0       0       0       
      +0       0       0       0       0       0       0       0       0       0
  5503 ;;      Temps:          0       0       0       0       0       0       0       0       0       0       0       0       
      +0       0       0       0       0       0       0       0       0       0       0       0       0       0       0       
      +0       0       0       0       0       0       0       0       0       0       0       0       0       0       0       
      +0       0       0       0       0       0       0       0       0       0
  5504 ;;      Totals:         6       0       0       0       0       0       0       0       0       0       0       0       
      +0       0       0       0       0       0       0       0       0       0       0       0       0       0       0       
      +0       0       0       0       0       0       0       0       0       0       0       0       0       0       0       
      +0       0       0       0       0       0       0       0       0       0
  5505 ;;Total ram usage:        6 bytes
  5506 ;; Hardware stack levels used: 1
  5507 ;; This function calls:
  5508 ;;		Nothing
  5509 ;; This function is called by:
  5510 ;;		_dspTaskT_Disp7Seg
  5511 ;; This function uses a non-reentrant model
  5512 ;;
  5513                           
  5514  0000'                    ___wmul:	
  5515                           ;psect for function ___wmul
  5516                           
  5517  0000'                    l1211:	
  5518                           ;incstack = 0
  5519                           ; Regs used in ___wmul: [wreg+status,2+status,0]
  5520                           
  5521  0000' 0184'              	clrf	___wmul@product
  5522  0001' 0185'              	clrf	___wmul@product+1
  5523  0002'                    l1213:
  5524  0002' 1C00'              	btfss	___wmul@multiplier,0
  5525  0003' 2800'              	goto	u651
  5526  0004' 2800'              	goto	u650
  5527  0005'                    u651:
  5528  0005' 2800'              	goto	l339
  5529  0006'                    u650:
  5530  0006'                    l1215:
  5531  0006' 0802'              	movf	___wmul@multiplicand,w
  5532  0007' 0784'              	addwf	___wmul@product,f
  5533  0008' 0803'              	movf	___wmul@multiplicand+1,w
  5534  0009' 3D85'              	addwfc	___wmul@product+1,f
  5535  000A'                    l339:
  5536  000A' 3001               	movlw	1
  5537  000B'                    u665:
  5538  000B' 3582'              	lslf	___wmul@multiplicand,f
  5539  000C' 0D83'              	rlf	___wmul@multiplicand+1,f
  5540  000D' 0B89               	decfsz	9,f
  5541  000E' 2800'              	goto	u665
  5542  000F'                    l1217:
  5543  000F' 3001               	movlw	1
  5544  0010'                    u675:
  5545  0010' 3681'              	lsrf	___wmul@multiplier+1,f
  5546  0011' 0C80'              	rrf	___wmul@multiplier,f
  5547  0012' 0B89               	decfsz	9,f
  5548  0013' 2800'              	goto	u675
  5549  0014'                    l1219:
  5550  0014' 0800'              	movf	___wmul@multiplier,w
  5551  0015' 0401'              	iorwf	___wmul@multiplier+1,w
  5552  0016' 1D03               	btfss	3,2
  5553  0017' 2800'              	goto	u681
  5554  0018' 2800'              	goto	u680
  5555  0019'                    u681:
  5556  0019' 2800'              	goto	l1213
  5557  001A'                    u680:
  5558  001A'                    l1221:
  5559  001A' 0805'              	movf	___wmul@product+1,w
  5560  001B' 0081'              	movwf	?___wmul+1
  5561  001C' 0804'              	movf	___wmul@product,w
  5562  001D' 0080'              	movwf	?___wmul
  5563  001E'                    l341:
  5564  001E' 0008               	return
  5565  001F'                    __end_of___wmul:
  5566                           
  5567                           	psect	text19
  5568  0000'                    __ptext19:	
  5569 ;; *************** function ___lwdiv *****************
  5570 ;; Defined at:
  5571 ;;		line 5 in file "C:\Program Files\Microchip\xc8\v2.41\pic\sources\c99\common\lwdiv.c"
  5572 ;; Parameters:    Size  Location     Type
  5573 ;;  divisor         2    6[COMMON] unsigned int 
  5574 ;;  dividend        2    8[COMMON] unsigned int 
  5575 ;; Auto vars:     Size  Location     Type
  5576 ;;  quotient        2   11[COMMON] unsigned int 
  5577 ;;  counter         1   13[COMMON] unsigned char 
  5578 ;; Return value:  Size  Location     Type
  5579 ;;                  2    6[COMMON] unsigned int 
  5580 ;; Registers used:
  5581 ;;		wreg, status,2, status,0
  5582 ;; Tracked objects:
  5583 ;;		On entry : 0/0
  5584 ;;		On exit  : 0/0
  5585 ;;		Unchanged: 0/0
  5586 ;; Data sizes:     COMMON   BANK0   BANK1   BANK2   BANK3   BANK4   BANK5   BANK6   BANK7   BANK8   BANK9  BANK10  BANK1
      +1  BANK12  BANK13  BANK14  BANK15  BANK16  BANK17  BANK18  BANK19  BANK20  BANK21  BANK22  BANK23  BANK24  BANK25  BANK2
      +6  BANK27  BANK28  BANK29  BANK30  BANK31  BANK32  BANK33  BANK34  BANK35  BANK36  BANK37  BANK38  BANK39  BANK40  BANK4
      +1  BANK42  BANK43  BANK44  BANK45  BANK46  BANK47  BANK48  BANK49  BANK50
  5587 ;;      Params:         4       0       0       0       0       0       0       0       0       0       0       0       
      +0       0       0       0       0       0       0       0       0       0       0       0       0       0       0       
      +0       0       0       0       0       0       0       0       0       0       0       0       0       0       0       
      +0       0       0       0       0       0       0       0       0       0
  5588 ;;      Locals:         3       0       0       0       0       0       0       0       0       0       0       0       
      +0       0       0       0       0       0       0       0       0       0       0       0       0       0       0       
      +0       0       0       0       0       0       0       0       0       0       0       0       0       0       0       
      +0       0       0       0       0       0       0       0       0       0
  5589 ;;      Temps:          1       0       0       0       0       0       0       0       0       0       0       0       
      +0       0       0       0       0       0       0       0       0       0       0       0       0       0       0       
      +0       0       0       0       0       0       0       0       0       0       0       0       0       0       0       
      +0       0       0       0       0       0       0       0       0       0
  5590 ;;      Totals:         8       0       0       0       0       0       0       0       0       0       0       0       
      +0       0       0       0       0       0       0       0       0       0       0       0       0       0       0       
      +0       0       0       0       0       0       0       0       0       0       0       0       0       0       0       
      +0       0       0       0       0       0       0       0       0       0
  5591 ;;Total ram usage:        8 bytes
  5592 ;; Hardware stack levels used: 1
  5593 ;; This function calls:
  5594 ;;		Nothing
  5595 ;; This function is called by:
  5596 ;;		_dspTaskT_Disp7Seg
  5597 ;;		_dspTaskW_OnLCD
  5598 ;; This function uses a non-reentrant model
  5599 ;;
  5600                           
  5601  0000'                    ___lwdiv:	
  5602                           ;psect for function ___lwdiv
  5603                           
  5604  0000'                    l1307:	
  5605                           ;incstack = 0
  5606                           ; Regs used in ___lwdiv: [wreg+status,2+status,0]
  5607                           
  5608  0000' 018B'              	clrf	___lwdiv@quotient
  5609  0001' 018C'              	clrf	___lwdiv@quotient+1
  5610  0002'                    l1309:
  5611  0002' 0806'              	movf	___lwdiv@divisor,w
  5612  0003' 0407'              	iorwf	___lwdiv@divisor+1,w
  5613  0004' 1903               	btfsc	3,2
  5614  0005' 2800'              	goto	u881
  5615  0006' 2800'              	goto	u880
  5616  0007'                    u881:
  5617  0007' 2800'              	goto	l1329
  5618  0008'                    u880:
  5619  0008'                    l1311:
  5620  0008' 018D'              	clrf	___lwdiv@counter
  5621  0009' 0A8D'              	incf	___lwdiv@counter,f
  5622  000A' 2800'              	goto	l1317
  5623  000B'                    l1313:
  5624  000B' 3001               	movlw	1
  5625  000C'                    u895:
  5626  000C' 3586'              	lslf	___lwdiv@divisor,f
  5627  000D' 0D87'              	rlf	___lwdiv@divisor+1,f
  5628  000E' 0B89               	decfsz	9,f
  5629  000F' 2800'              	goto	u895
  5630  0010'                    l1315:
  5631  0010' 3001               	movlw	1
  5632  0011' 008A'              	movwf	??___lwdiv
  5633  0012' 080A'              	movf	??___lwdiv,w
  5634  0013' 078D'              	addwf	___lwdiv@counter,f
  5635  0014'                    l1317:
  5636  0014' 1F87'              	btfss	___lwdiv@divisor+1,7
  5637  0015' 2800'              	goto	u901
  5638  0016' 2800'              	goto	u900
  5639  0017'                    u901:
  5640  0017' 2800'              	goto	l1313
  5641  0018'                    u900:
  5642  0018'                    l1319:
  5643  0018' 3001               	movlw	1
  5644  0019'                    u915:
  5645  0019' 358B'              	lslf	___lwdiv@quotient,f
  5646  001A' 0D8C'              	rlf	___lwdiv@quotient+1,f
  5647  001B' 0B89               	decfsz	9,f
  5648  001C' 2800'              	goto	u915
  5649  001D' 0807'              	movf	___lwdiv@divisor+1,w
  5650  001E' 0209'              	subwf	___lwdiv@dividend+1,w
  5651  001F' 1D03               	skipz
  5652  0020' 2800'              	goto	u925
  5653  0021' 0806'              	movf	___lwdiv@divisor,w
  5654  0022' 0208'              	subwf	___lwdiv@dividend,w
  5655  0023'                    u925:
  5656  0023' 1C03               	skipc
  5657  0024' 2800'              	goto	u921
  5658  0025' 2800'              	goto	u920
  5659  0026'                    u921:
  5660  0026' 2800'              	goto	l1325
  5661  0027'                    u920:
  5662  0027'                    l1321:
  5663  0027' 0806'              	movf	___lwdiv@divisor,w
  5664  0028' 0288'              	subwf	___lwdiv@dividend,f
  5665  0029' 0807'              	movf	___lwdiv@divisor+1,w
  5666  002A' 3B89'              	subwfb	___lwdiv@dividend+1,f
  5667  002B'                    l1323:
  5668  002B' 140B'              	bsf	___lwdiv@quotient,0
  5669  002C'                    l1325:
  5670  002C' 3001               	movlw	1
  5671  002D'                    u935:
  5672  002D' 3687'              	lsrf	___lwdiv@divisor+1,f
  5673  002E' 0C86'              	rrf	___lwdiv@divisor,f
  5674  002F' 0B89               	decfsz	9,f
  5675  0030' 2800'              	goto	u935
  5676  0031'                    l1327:
  5677  0031' 3001               	movlw	1
  5678  0032' 028D'              	subwf	___lwdiv@counter,f
  5679  0033' 1D03               	btfss	3,2
  5680  0034' 2800'              	goto	u941
  5681  0035' 2800'              	goto	u940
  5682  0036'                    u941:
  5683  0036' 2800'              	goto	l1319
  5684  0037'                    u940:
  5685  0037'                    l1329:
  5686  0037' 080C'              	movf	___lwdiv@quotient+1,w
  5687  0038' 0087'              	movwf	?___lwdiv+1
  5688  0039' 080B'              	movf	___lwdiv@quotient,w
  5689  003A' 0086'              	movwf	?___lwdiv
  5690  003B'                    l619:
  5691  003B' 0008               	return
  5692  003C'                    __end_of___lwdiv:
  5693  007E                     btemp	set	126	;btemp
  5694  007E                     wtemp0	set	126
  5695                           
  5696                           	psect	config
  5697                           
  5698                           ;Config register CONFIG1 @ 0x8007
  5699                           ;	External Oscillator mode selection bits
  5700                           ;	FEXTOSC = XT, XT (crystal oscillator) above 500kHz, below 4MHz; PFM set to medium powe
      +                          r
  5701                           ;	Power-up default value for COSC bits
  5702                           ;	RSTOSC = 0x7, unprogrammed default
  5703                           ;	Clock Out Enable bit
  5704                           ;	CLKOUTEN = 0x1, unprogrammed default
  5705                           ;	Clock Switch Enable bit
  5706                           ;	CSWEN = 0x1, unprogrammed default
  5707                           ;	Fail-Safe Clock Monitor Enable bit
  5708                           ;	FCMEN = 0x1, unprogrammed default
  5709  8007                     	org	32775
  5710  8007  3FF9               	dw	16377
  5711                           
  5712                           ;Config register CONFIG3 @ 0x8009
  5713                           ;	WDT Period Select bits
  5714                           ;	WDTCPS = 0x1F, unprogrammed default
  5715                           ;	WDT operating mode
  5716                           ;	WDTE = OFF, WDT Disabled, SWDTEN is ignored
  5717                           ;	WDT Window Select bits
  5718                           ;	WDTCWS = 0x7, unprogrammed default
  5719                           ;	WDT input clock selector
  5720                           ;	WDTCCS = 0x7, unprogrammed default
  5721  8009                     	org	32777
  5722  8009  3F9F               	dw	16287
  5723                           
  5724                           ;Config register CONFIG4 @ 0x800A
  5725                           ;	UserNVM self-write protection bits
  5726                           ;	WRT = 0x3, unprogrammed default
  5727                           ;	Scanner Enable bit
  5728                           ;	SCANE = 0x1, unprogrammed default
  5729                           ;	Low Voltage Programming Enable bit
  5730                           ;	LVP = OFF, High Voltage on MCLR/Vpp must be used for programming
  5731  800A                     	org	32778
  5732  800A  1FFF               	dw	8191

Data Sizes:
    Strings     0
    Constant    0
    Data        87
    BSS         0
    Persistent  32
    Stack       0

Auto Spaces:
    Space          Size  Autos    Used
    COMMON           14     14      14
    BANK0            80     80      80
    BANK1            80     26      79
    BANK2            80      0      34
    BANK3            80      0       0
    BANK4            80      0       0
    BANK5            80      0       0
    BANK6            80      0       0
    BANK7            80      0       0
    BANK8            80      0       0
    BANK9            80      0       0
    BANK10           80      0       0
    BANK11           80      0       0
    BANK12           80      0       0
    BANK13           80      0       0
    BANK14           80      0       0
    BANK15           80      0       0
    BANK16           80      0       0
    BANK17           80      0       0
    BANK18           80      0       0
    BANK19           80      0       0
    BANK20           80      0       0
    BANK21           80      0       0
    BANK22           80      0       0
    BANK23           80      0       0
    BANK24           80      0       0
    BANK25           80      0       0
    BANK26           80      0       0
    BANK27           80      0       0
    BANK28           80      0       0
    BANK29           80      0       0
    BANK30           80      0       0
    BANK31           80      0       0
    BANK32           80      0       0
    BANK33           80      0       0
    BANK34           80      0       0
    BANK35           80      0       0
    BANK36           80      0       0
    BANK37           80      0       0
    BANK38           80      0       0
    BANK39           80      0       0
    BANK40           80      0       0
    BANK41           80      0       0
    BANK42           80      0       0
    BANK43           80      0       0
    BANK44           80      0       0
    BANK45           80      0       0
    BANK46           80      0       0
    BANK47           80      0       0
    BANK48           80      0       0
    BANK49           80      0       0
    BANK50           80      0       0

Pointer List with Targets:

    None.

Critical Paths under _main in COMMON

    _initLCD->_lcdCtrl_OnOffDisplay
    _lcdCtrl_SetEntryMode->_lcdWriteCtrlWord
    _lcdCtrl_OnOffDisplay->_lcdWriteCtrlWord
    _lcdCtrl_FunctionSet->_lcdWriteCtrlWord
    _lcdCtrl_ClearDisplay->_lcdWriteCtrlWord
    _dspTaskW_OnLCD->___awmod
    _dspTaskW_OnLCD->___lwdiv
    _lcdWriteDspData->_lcdWriteNibble
    _lcdCtrl_SetPos->_lcdWriteCtrlWord
    _lcdWriteCtrlWord->_lcdWriteNibble
    ___awmod->___awdiv
    _dspTaskT_Disp7Seg->___lwdiv
    ___lwdiv->___wmul

Critical Paths under _main in BANK0

    _main->_dspTaskW_OnLCD
    _dspTaskW_OnLCD->___awmod

Critical Paths under _main in BANK1

    None.

Critical Paths under _main in BANK2

    None.

Critical Paths under _main in BANK3

    None.

Critical Paths under _main in BANK4

    None.

Critical Paths under _main in BANK5

    None.

Critical Paths under _main in BANK6

    None.

Critical Paths under _main in BANK7

    None.

Critical Paths under _main in BANK8

    None.

Critical Paths under _main in BANK9

    None.

Critical Paths under _main in BANK10

    None.

Critical Paths under _main in BANK11

    None.

Critical Paths under _main in BANK12

    None.

Critical Paths under _main in BANK13

    None.

Critical Paths under _main in BANK14

    None.

Critical Paths under _main in BANK15

    None.

Critical Paths under _main in BANK16

    None.

Critical Paths under _main in BANK17

    None.

Critical Paths under _main in BANK18

    None.

Critical Paths under _main in BANK19

    None.

Critical Paths under _main in BANK20

    None.

Critical Paths under _main in BANK21

    None.

Critical Paths under _main in BANK22

    None.

Critical Paths under _main in BANK23

    None.

Critical Paths under _main in BANK24

    None.

Critical Paths under _main in BANK25

    None.

Critical Paths under _main in BANK26

    None.

Critical Paths under _main in BANK27

    None.

Critical Paths under _main in BANK28

    None.

Critical Paths under _main in BANK29

    None.

Critical Paths under _main in BANK30

    None.

Critical Paths under _main in BANK31

    None.

Critical Paths under _main in BANK32

    None.

Critical Paths under _main in BANK33

    None.

Critical Paths under _main in BANK34

    None.

Critical Paths under _main in BANK35

    None.

Critical Paths under _main in BANK36

    None.

Critical Paths under _main in BANK37

    None.

Critical Paths under _main in BANK38

    None.

Critical Paths under _main in BANK39

    None.

Critical Paths under _main in BANK40

    None.

Critical Paths under _main in BANK41

    None.

Critical Paths under _main in BANK42

    None.

Critical Paths under _main in BANK43

    None.

Critical Paths under _main in BANK44

    None.

Critical Paths under _main in BANK45

    None.

Critical Paths under _main in BANK46

    None.

Critical Paths under _main in BANK47

    None.

Critical Paths under _main in BANK48

    None.

Critical Paths under _main in BANK49

    None.

Critical Paths under _main in BANK50

    None.

Call Graph Tables:

 ---------------------------------------------------------------------------------
 (Depth) Function   	        Calls       Base Space   Used Autos Params    Refs
 ---------------------------------------------------------------------------------
 (0) _main                                                98    98      0    6868
                                             12 BANK0     68    68      0
                                              0 BANK1     26    26      0
                  _dspTaskT_Disp7Seg
                     _dspTaskW_OnLCD
                            _initADC
                            _initLCD
                        _initSysPins
                     _lcdCtrl_SetPos
                    _lcdWriteDspData
 ---------------------------------------------------------------------------------
 (1) _initSysPins                                          0     0      0       0
 ---------------------------------------------------------------------------------
 (1) _initLCD                                              1     1      0    1035
                                             11 COMMON     1     1      0
               _lcdCtrl_ClearDisplay
                _lcdCtrl_FunctionSet
               _lcdCtrl_OnOffDisplay
               _lcdCtrl_SetEntryMode
                   _lcdWriteCtrlWord
 ---------------------------------------------------------------------------------
 (2) _lcdCtrl_SetEntryMode                                 0     0      0     178
                   _lcdWriteCtrlWord
 ---------------------------------------------------------------------------------
 (2) _lcdCtrl_OnOffDisplay                                 4     3      1     323
                                              7 COMMON     4     3      1
                   _lcdWriteCtrlWord
 ---------------------------------------------------------------------------------
 (2) _lcdCtrl_FunctionSet                                  0     0      0     178
                   _lcdWriteCtrlWord
 ---------------------------------------------------------------------------------
 (2) _lcdCtrl_ClearDisplay                                 0     0      0     178
                   _lcdWriteCtrlWord
 ---------------------------------------------------------------------------------
 (1) _initADC                                              0     0      0       0
 ---------------------------------------------------------------------------------
 (1) _dspTaskW_OnLCD                                      10    10      0    3331
                                              2 BANK0     10    10      0
                            ___awdiv
                            ___awmod
                            ___lwdiv
                 _adc_GetWConversion
                     _lcdCtrl_SetPos
                    _lcdWriteDspData
 ---------------------------------------------------------------------------------
 (1) _lcdWriteDspData                                      4     4      0     178
                                              3 COMMON     4     4      0
                     _lcdWriteNibble
 ---------------------------------------------------------------------------------
 (1) _lcdCtrl_SetPos                                       3     2      1     800
                                              7 COMMON     3     2      1
                   _lcdWriteCtrlWord
 ---------------------------------------------------------------------------------
 (2) _lcdWriteCtrlWord                                     4     4      0     178
                                              3 COMMON     4     4      0
                     _lcdWriteNibble
 ---------------------------------------------------------------------------------
 (2) _lcdWriteNibble                                       3     3      0      88
                                              0 COMMON     3     3      0
 ---------------------------------------------------------------------------------
 (2) _adc_GetWConversion                                   4     2      2      23
                                              0 COMMON     4     2      2
 ---------------------------------------------------------------------------------
 (2) ___awmod                                              7     3      4     904
                                              9 COMMON     5     1      4
                                              0 BANK0      2     2      0
                            ___awdiv (ARG)
 ---------------------------------------------------------------------------------
 (2) ___awdiv                                              9     5      4     756
                                              0 COMMON     9     5      4
 ---------------------------------------------------------------------------------
 (1) _dspTaskT_Disp7Seg                                    6     6      0     966
                                              0 BANK0      6     6      0
                            ___lwdiv
                             ___wmul
                 _adc_GetTConversion
                        _seg_DispAll
 ---------------------------------------------------------------------------------
 (2) _seg_DispAll                                          2     0      2      12
 ---------------------------------------------------------------------------------
 (2) _adc_GetTConversion                                   4     2      2      23
                                              0 COMMON     4     2      2
 ---------------------------------------------------------------------------------
 (2) ___wmul                                               6     2      4     396
                                              0 COMMON     6     2      4
 ---------------------------------------------------------------------------------
 (2) ___lwdiv                                              8     4      4     466
                                              6 COMMON     8     4      4
                             ___wmul (ARG)
 ---------------------------------------------------------------------------------
 Estimated maximum stack depth 2
 ---------------------------------------------------------------------------------

 Call Graph Graphs:

 _main (ROOT)
   _dspTaskT_Disp7Seg
     ___lwdiv
       ___wmul (ARG)
     ___wmul
     _adc_GetTConversion
     _seg_DispAll
   _dspTaskW_OnLCD
     ___awdiv
     ___awmod
       ___awdiv (ARG)
     ___lwdiv
     _adc_GetWConversion
     _lcdCtrl_SetPos
       _lcdWriteCtrlWord
         _lcdWriteNibble
     _lcdWriteDspData
       _lcdWriteNibble
   _initADC
   _initLCD
     _lcdCtrl_ClearDisplay
       _lcdWriteCtrlWord
     _lcdCtrl_FunctionSet
       _lcdWriteCtrlWord
     _lcdCtrl_OnOffDisplay
       _lcdWriteCtrlWord
     _lcdCtrl_SetEntryMode
       _lcdWriteCtrlWord
     _lcdWriteCtrlWord
   _initSysPins
   _lcdCtrl_SetPos
   _lcdWriteDspData

 Address spaces:
Name               Size   Autos  Total    Cost      Usage
BIGRAM             FF0      0       0       0        0.0%
EEDATA             100      0       0       0        0.0%
NULL                 0      0       0       0        0.0%
CODE                 0      0       0       0        0.0%
BITCOMMON            E      0       0       1        0.0%
BITSFR0              0      0       0       1        0.0%
SFR0                 0      0       0       1        0.0%
COMMON               E      E       E       2      100.0%
BITSFR1              0      0       0       2        0.0%
SFR1                 0      0       0       2        0.0%
BITSFR2              0      0       0       3        0.0%
SFR2                 0      0       0       3        0.0%
STACK                0      0       0       3        0.0%
BITBANK0            50      0       0       4        0.0%
BITSFR3              0      0       0       4        0.0%
SFR3                 0      0       0       4        0.0%
BANK0               50     50      50       5      100.0%
BITSFR4              0      0       0       5        0.0%
SFR4                 0      0       0       5        0.0%
BITBANK1            50      0       0       6        0.0%
BITSFR5              0      0       0       6        0.0%
SFR5                 0      0       0       6        0.0%
BANK1               50     1A      4F       7       98.8%
BITSFR6              0      0       0       7        0.0%
SFR6                 0      0       0       7        0.0%
BITBANK2            50      0       0       8        0.0%
BITSFR7              0      0       0       8        0.0%
SFR7                 0      0       0       8        0.0%
BANK2               50      0      22       9       42.5%
BITSFR8              0      0       0       9        0.0%
SFR8                 0      0       0       9        0.0%
BITBANK3            50      0       0      10        0.0%
BITSFR9              0      0       0      10        0.0%
SFR9                 0      0       0      10        0.0%
BANK3               50      0       0      11        0.0%
BITSFR10             0      0       0      11        0.0%
SFR10                0      0       0      11        0.0%
BITBANK4            50      0       0      12        0.0%
BITSFR11             0      0       0      12        0.0%
SFR11                0      0       0      12        0.0%
BANK4               50      0       0      13        0.0%
BITSFR12             0      0       0      13        0.0%
SFR12                0      0       0      13        0.0%
BITBANK5            50      0       0      14        0.0%
BITSFR13             0      0       0      14        0.0%
SFR13                0      0       0      14        0.0%
BANK5               50      0       0      15        0.0%
BITSFR14             0      0       0      15        0.0%
SFR14                0      0       0      15        0.0%
BITBANK6            50      0       0      16        0.0%
BITSFR15             0      0       0      16        0.0%
SFR15                0      0       0      16        0.0%
BANK6               50      0       0      17        0.0%
BITSFR16             0      0       0      17        0.0%
SFR16                0      0       0      17        0.0%
BITBANK7            50      0       0      18        0.0%
BITSFR17             0      0       0      18        0.0%
SFR17                0      0       0      18        0.0%
BANK7               50      0       0      19        0.0%
BITSFR18             0      0       0      19        0.0%
SFR18                0      0       0      19        0.0%
BITBANK8            50      0       0      20        0.0%
BITSFR19             0      0       0      20        0.0%
SFR19                0      0       0      20        0.0%
BANK8               50      0       0      21        0.0%
BITSFR20             0      0       0      21        0.0%
SFR20                0      0       0      21        0.0%
BITBANK9            50      0       0      22        0.0%
BITSFR21             0      0       0      22        0.0%
SFR21                0      0       0      22        0.0%
BANK9               50      0       0      23        0.0%
BITSFR22             0      0       0      23        0.0%
SFR22                0      0       0      23        0.0%
BITBANK10           50      0       0      24        0.0%
BITSFR23             0      0       0      24        0.0%
SFR23                0      0       0      24        0.0%
BANK10              50      0       0      25        0.0%
BITSFR24             0      0       0      25        0.0%
SFR24                0      0       0      25        0.0%
BITBANK11           50      0       0      26        0.0%
BITSFR25             0      0       0      26        0.0%
SFR25                0      0       0      26        0.0%
BANK11              50      0       0      27        0.0%
BITSFR26             0      0       0      27        0.0%
SFR26                0      0       0      27        0.0%
BITSFR27             0      0       0      28        0.0%
SFR27                0      0       0      28        0.0%
ABS                  0      0      CF      28        0.0%
BITBANK12           50      0       0      29        0.0%
BITSFR28             0      0       0      29        0.0%
SFR28                0      0       0      29        0.0%
BANK12              50      0       0      30        0.0%
BITSFR29             0      0       0      30        0.0%
SFR29                0      0       0      30        0.0%
BITBANK13           50      0       0      31        0.0%
BITSFR30             0      0       0      31        0.0%
SFR30                0      0       0      31        0.0%
BANK13              50      0       0      32        0.0%
BITSFR31             0      0       0      32        0.0%
SFR31                0      0       0      32        0.0%
BITBANK14           50      0       0      33        0.0%
BITSFR32             0      0       0      33        0.0%
SFR32                0      0       0      33        0.0%
BANK14              50      0       0      34        0.0%
BITSFR33             0      0       0      34        0.0%
SFR33                0      0       0      34        0.0%
BITBANK15           50      0       0      35        0.0%
BITSFR34             0      0       0      35        0.0%
SFR34                0      0       0      35        0.0%
BANK15              50      0       0      36        0.0%
BITSFR35             0      0       0      36        0.0%
SFR35                0      0       0      36        0.0%
BITBANK16           50      0       0      37        0.0%
BITSFR36             0      0       0      37        0.0%
SFR36                0      0       0      37        0.0%
BANK16              50      0       0      38        0.0%
BITSFR37             0      0       0      38        0.0%
SFR37                0      0       0      38        0.0%
BITBANK17           50      0       0      39        0.0%
BITSFR38             0      0       0      39        0.0%
SFR38                0      0       0      39        0.0%
BANK17              50      0       0      40        0.0%
BITSFR39             0      0       0      40        0.0%
SFR39                0      0       0      40        0.0%
BITBANK18           50      0       0      41        0.0%
BITSFR40             0      0       0      41        0.0%
SFR40                0      0       0      41        0.0%
BANK18              50      0       0      42        0.0%
BITSFR41             0      0       0      42        0.0%
SFR41                0      0       0      42        0.0%
BITBANK19           50      0       0      43        0.0%
BITSFR42             0      0       0      43        0.0%
SFR42                0      0       0      43        0.0%
BANK19              50      0       0      44        0.0%
BITSFR43             0      0       0      44        0.0%
SFR43                0      0       0      44        0.0%
BITBANK20           50      0       0      45        0.0%
BITSFR44             0      0       0      45        0.0%
SFR44                0      0       0      45        0.0%
BANK20              50      0       0      46        0.0%
BITSFR45             0      0       0      46        0.0%
SFR45                0      0       0      46        0.0%
BITBANK21           50      0       0      47        0.0%
BITSFR46             0      0       0      47        0.0%
SFR46                0      0       0      47        0.0%
BANK21              50      0       0      48        0.0%
BITSFR47             0      0       0      48        0.0%
SFR47                0      0       0      48        0.0%
BITBANK22           50      0       0      49        0.0%
BITSFR48             0      0       0      49        0.0%
SFR48                0      0       0      49        0.0%
BANK22              50      0       0      50        0.0%
BITSFR49             0      0       0      50        0.0%
SFR49                0      0       0      50        0.0%
BITBANK23           50      0       0      51        0.0%
BITSFR50             0      0       0      51        0.0%
SFR50                0      0       0      51        0.0%
BANK23              50      0       0      52        0.0%
BITSFR51             0      0       0      52        0.0%
SFR51                0      0       0      52        0.0%
BITBANK24           50      0       0      53        0.0%
BITSFR52             0      0       0      53        0.0%
SFR52                0      0       0      53        0.0%
BANK24              50      0       0      54        0.0%
BITSFR53             0      0       0      54        0.0%
SFR53                0      0       0      54        0.0%
BITBANK25           50      0       0      55        0.0%
BITSFR54             0      0       0      55        0.0%
SFR54                0      0       0      55        0.0%
BANK25              50      0       0      56        0.0%
BITSFR55             0      0       0      56        0.0%
SFR55                0      0       0      56        0.0%
BITBANK26           50      0       0      57        0.0%
BITSFR56             0      0       0      57        0.0%
SFR56                0      0       0      57        0.0%
BANK26              50      0       0      58        0.0%
BITSFR57             0      0       0      58        0.0%
SFR57                0      0       0      58        0.0%
BITSFR58             0      0       0      59        0.0%
SFR58                0      0       0      59        0.0%
DATA                 0      0      CF      59        0.0%
BITBANK27           50      0       0      60        0.0%
BITSFR59             0      0       0      60        0.0%
SFR59                0      0       0      60        0.0%
BANK27              50      0       0      61        0.0%
BITSFR60             0      0       0      61        0.0%
SFR60                0      0       0      61        0.0%
BITBANK28           50      0       0      62        0.0%
BITSFR61             0      0       0      62        0.0%
SFR61                0      0       0      62        0.0%
BANK28              50      0       0      63        0.0%
BITSFR62             0      0       0      63        0.0%
SFR62                0      0       0      63        0.0%
BITBANK29           50      0       0      64        0.0%
BITSFR63             0      0       0      64        0.0%
SFR63                0      0       0      64        0.0%
BANK29              50      0       0      65        0.0%
BITBANK30           50      0       0      66        0.0%
BANK30              50      0       0      67        0.0%
BITBANK31           50      0       0      68        0.0%
BANK31              50      0       0      69        0.0%
BITBANK32           50      0       0      70        0.0%
BANK32              50      0       0      71        0.0%
BITBANK33           50      0       0      72        0.0%
BANK33              50      0       0      73        0.0%
BITBANK34           50      0       0      74        0.0%
BANK34              50      0       0      75        0.0%
BITBANK35           50      0       0      76        0.0%
BANK35              50      0       0      77        0.0%
BITBANK36           50      0       0      78        0.0%
BANK36              50      0       0      79        0.0%
BITBANK37           50      0       0      80        0.0%
BANK37              50      0       0      81        0.0%
BITBANK38           50      0       0      82        0.0%
BANK38              50      0       0      83        0.0%
BITBANK39           50      0       0      84        0.0%
BANK39              50      0       0      85        0.0%
BITBANK40           50      0       0      86        0.0%
BANK40              50      0       0      87        0.0%
BITBANK41           50      0       0      88        0.0%
BANK41              50      0       0      89        0.0%
BITBANK42           50      0       0      90        0.0%
BANK42              50      0       0      91        0.0%
BITBANK43           50      0       0      92        0.0%
BANK43              50      0       0      93        0.0%
BITBANK44           50      0       0      94        0.0%
BANK44              50      0       0      95        0.0%
BITBANK45           50      0       0      96        0.0%
BANK45              50      0       0      97        0.0%
BITBANK46           50      0       0      98        0.0%
BANK46              50      0       0      99        0.0%
BITBANK47           50      0       0     100        0.0%
BANK47              50      0       0     101        0.0%
BITBANK48           50      0       0     102        0.0%
BANK48              50      0       0     103        0.0%
BITBANK49           50      0       0     104        0.0%
BANK49              50      0       0     105        0.0%
BITBANK50           50      0       0     106        0.0%
BANK50              50      0       0     107        0.0%


Microchip Technology PIC Macro Assembler V2.41 build 20230208172133 
Symbol Table                                                                                   Mon Jul 17 16:02:01 2023

             ?_lcdCtrl_FunctionSet 0000                                 l21 0007  
                               l30 0006                                 l24 0006  
                               l33 0012                                 l27 0012  
                               l86 0066                                 l87 00D1  
                     ___awdiv@sign 0006             ??_lcdCtrl_OnOffDisplay 0008  
              ___wmul@multiplicand 0002                                l120 0019  
                              l134 0050                                l162 0017  
                              l138 00A5                                l341 001E  
                              l173 0012                                l165 0017  
                              l181 0016                                l159 0025  
                              l168 0041                                l176 0004  
                              l184 0004                                l505 0053  
                              l339 000A                                l187 0004  
                              l619 003B                                l492 005E  
                              u600 000A                                u601 0009  
                              u610 0006                                u611 0005  
                              u700 0010                                u701 000F  
                              u710 0021                                u630 0008  
                              u711 0020                                u631 0007  
                              u800 0011                                u640 000E  
                              u801 0010                                u625 0004  
                              u641 000D                                u650 0006  
                              u730 0031                                u810 001C  
                              u651 0005                                u731 0030  
                              u811 001B                                u900 0018  
                              u901 0017                                u725 0025  
                              u565 0004                                u590 000A  
                              u750 0040                                u830 002C  
                              u591 0009                                u751 003F  
                              u831 002B                                u575 0015  
                              u920 0027                                u680 001A  
                              u840 0036                                u921 0026  
                              u681 0019                                u665 000B  
                              u745 0032                                u841 0035  
                              u825 0020                                u585 0004  
                              u770 0050                                u690 0005  
                              u915 0019                                u675 0010  
                              u771 004F                                u755 003C  
                              u691 0004                                u940 0037  
                              u780 0055                                u860 0045  
                              u941 0036                                u925 0023  
                              u781 0054                                u765 0046  
                              u861 0044                                u845 0032  
                              u950 0016                                u870 004A  
                              u790 0006                                u935 002D  
                              u951 0015                                u871 0049  
                              u855 003B                                u791 0005  
                              u880 0008                                u960 0016  
                              u881 0007                                u961 0015  
                              u970 0011                                u955 0012  
                              u980 001F                                u965 0012  
                              u990 0046                                u895 000C  
                              u991 0045                       ___awmod@sign 0001  
                              wreg 0009                               l1201 0009  
                             l1211 0000                               l1203 000E  
                             l1221 001A                               l1213 0002  
                             l1301 004A                               l1141 003B  
                             l1205 0012                               l1311 0008  
                             l1215 0006                               l1231 000A  
                             l1303 004F                               l1143 003D  
                             l1135 0001                               l1151 000F  
                             l1207 0000                               l1321 0027  
                             l1313 000B                               l1217 000F  
                             l1161 000A                               l1241 001B  
                             l1233 000C                               l1225 0000  
                             l1137 0036                               l1153 0013  
                             l1145 0001                               l1209 0000  
                             l1401 003D                               l1323 002B  
                             l1315 0010                               l1307 0000  
                             l1219 0014                               l1155 0000  
                             l1251 0031                               l1243 0021  
                             l1235 0010                               l1227 0001  
                             l1171 000A                               l1139 0037  
                             l1147 000A                               l1411 005D  
                             l1403 0046                               l1325 002C  
                             l1317 0014                               l1309 0002  
                             l1157 0003                               l1253 0040  
                             l1245 0024                               l1261 0050  
                             l1237 0015                               l1229 0005  
                             l1165 0000                               l1149 000D  
                             l1181 000D                               l1333 0000  
                             l1341 0006                               l1421 0092  
                             l1413 006A                               l1405 004C  
                             l1327 0031                               l1319 0018  
                             l1159 0004                               l1263 0055  
                             l1255 0044                               l1247 0029  
                             l1239 0019                               l1271 0002  
                             l1167 0003                               l1175 0001  
                             l1191 0013                               l1183 0001  
                             l1335 0002                               l1351 0007  
                             l1343 0008                               l1431 00B2  
                             l1423 0096                               l1415 0086  
                             l1407 0050                               l1329 0037  
                             l1361 0039                               l1265 005A  
                             l1257 0045                               l1249 002D  
                             l1281 0016                               l1273 0006  
                             l1169 0004                               l1177 0006  
                             l1185 000A                               l1337 0004  
                             l1193 0000                               l1353 000B  
                             l1345 0011                               l1441 00CD  
                             l1433 00B6                               l1425 009E  
                             l1417 0089                               l1409 0058  
                             l1363 0049                               l1355 0000  
                             l1259 004A                               l1291 002C  
                             l1283 001C                               l1275 000B  
                             l1179 000A                               l1187 000D  
                             l1371 002E                               l1195 0001  
                             l1347 0014                               l1339 0000  
                             l1451 00FD                               l1443 00D5  
                             l1435 00BE                               l1427 00A3  
                             l1419 008C                               l1357 0016  
                             l1293 0036                               l1285 001F  
                             l1277 000D                               l1269 0000  
                             l1189 000F                               l1381 008D  
                             l1373 003C                               l1365 0000  
                             l1197 0003                               l1349 0000  
                             l1461 011D                               l1453 0101  
                             l1445 00F1                               l1437 00C3  
                             l1429 00AC                               l1359 001E  
                             l1295 003A                               l1287 0024  
                             l1279 0011                               l1383 0093  
                             l1375 0055                               l1367 0016  
                             l1199 0008                               l1471 0138  
                             l1463 0121                               l1455 0109  
                             l1447 00F4                               l1439 00CC  
                             l1391 0006                               l1297 003F  
                             l1289 0028                               l1385 0099  
                             l1377 006E                               l1369 001E  
                             l1465 0129                               l1457 010E  
                             l1449 00F7                               l1393 0015  
                             l1299 0045                               l1387 009F  
                             l1379 0087                               l1467 012E  
                             l1459 0117                               l1395 002C  
                             l1469 0137                               l1397 0030  
                             l1389 0000                               l1399 0038  
                             u1000 0066                               u1001 0065  
                             u1010 006A                               u1011 0069  
                             u1100 0137                               u1020 0074  
                             u1101 0136                               u1030 0082  
                             u1040 00AC                               u1041 00AB  
                             u1050 00CC                               u1051 00CB  
                             u1060 00D5                               u1117 0003  
                             u1061 00D4                               u1070 00DF  
                             u1127 000E                               u1080 00ED  
                             u1137 0038                               u1090 0117  
                             u1147 003E                               u1091 0116  
             _lcdCtrl_SetEntryMode 0000             __end_of_dspTaskW_OnLCD 00A6  
                             _main 0000                               fsr0h 0005  
                             fsr1h 0007                               fsr0l 0004  
                             indf1 0001                               fsr1l 0006  
                             btemp 007E                               start 0000* 
            ??_lcdCtrl_FunctionSet 0007                              _ADACQ 009D  
                            ?_main 0000                              _ADCLK 0098  
                            _ADPCH 009E                              _ADREF 009A  
                  __end_of___awdiv 005F                       ?_initSysPins 0000  
                  __end_of___awmod 0054                    ___awdiv@divisor 0000  
                  __end_of___lwdiv 003C                    ___awdiv@counter 0005  
                            _PORTA 000C                   _lcdWriteCtrlWord 0000  
                            _TRISA 0011                              _TRISB 0012  
                            _TRISC 0013                              _TRISD 0014  
                            _TRISE 0015                       main@message1 000D  
                     main@message2 001E                       main@message3 003D  
                     main@message4 002F                       main@message5 0000  
                     main@message6 000D                    __end_of_initADC 0008  
                  __end_of_initLCD 0026                       ?_seg_DispAll 0000  
                            main@i 004A              ?_lcdCtrl_SetEntryMode 0000  
                            status 0003                    ?_dspTaskW_OnLCD 0000  
                            wtemp0 007E                    __initialization 0000  
                     __end_of_main 013E                   ??_lcdWriteNibble 0000  
                           ??_main 000C                             _ADCON0 0093  
                           _ADRESH 008D                             _ADRESL 008C  
                 ___awdiv@dividend 0002                             _ANSELA 1F38  
                           _ANSELB 1F43                             _ANSELC 1F4E  
                           _ANSELD 1F59                             _ANSELE 1F64  
                           ___wmul 0000                          ??___awdiv 0004  
                        ??___awmod 000D                          ??___lwdiv 000A  
                 ___awdiv@quotient 0007                    ___awmod@divisor 0009  
                  ___awmod@counter 0000                          ??_initADC 0000  
                        ??_initLCD 000B             ??_lcdCtrl_SetEntryMode 0007  
          __end_of__initialization 0018   lcdCtrl_OnOffDisplay@cursor_state 0007  
                   __pcstackCOMMON 0000                       __pidataBANK1 0000  
                     __pidataBANK2 0000                  ??_lcdWriteDspData 0003  
                 lcdWriteDspData@x 0006           __end_of_lcdWriteCtrlWord 0018  
                       __pmaintext 0000                            ?___wmul 0000  
                    _seg_DispAll$0 0000                   ??_dspTaskW_OnLCD 0002  
      __end_of_lcdCtrl_FunctionSet 0005       __end_of_lcdCtrl_ClearDisplay 0005  
                          ___awdiv 0000                            ___awmod 0000  
                          ___lwdiv 0000              lcdCtrl_SetPos@ramAddr 0009  
                          __ptext1 0000                            __ptext2 0000  
                          __ptext3 0000                            __ptext4 0000  
                          __ptext5 0000                            __ptext6 0000  
                          __ptext7 0000                            __ptext8 0000  
                          __ptext9 0000                            _initADC 0000  
                          _initLCD 0000                   ___awmod@dividend 000B  
             end_of_initialization 0018                 dspTaskW_OnLCD@Wlvl 0004  
               dspTaskW_OnLCD@dig0 0006                 dspTaskW_OnLCD@dig1 0007  
               dspTaskW_OnLCD@dig2 0008                 dspTaskW_OnLCD@dig3 0009  
                          init_ram 0000                            initloop 0001  
                   _lcdCtrl_SetPos 0000                         main@F12172 0028  
                       main@F12174 0000                         main@F12167 0011  
                       main@F12169 0000                         main@F12177 001B  
                       main@F12179 000E           adc_GetTConversion@result 0002  
                        _PORTBbits 000D                          _PORTDbits 000F  
                        _PORTEbits 0010        lcdWriteDspData@lower_nibble 0005  
     lcdWriteCtrlWord@lower_nibble 0005             __end_of_lcdCtrl_SetPos 0013  
                  _lcdWriteDspData 0000                     __end_of___wmul 001F  
       __end_of_adc_GetTConversion 0013                start_initialization 0000  
             _lcdCtrl_ClearDisplay 0000               lcdWriteNibble@nibble 0002  
                  ?_lcdCtrl_SetPos 0007                  ?_lcdWriteCtrlWord 0000  
               ??_lcdWriteCtrlWord 0003                           ??___wmul 0004  
                      __pdataBANK1 0000                        __pdataBANK2 0000  
       __end_of_adc_GetWConversion 0013                      ??_initSysPins 0000  
                        ___latbits 0004                      __pcstackBANK0 0000  
                    __pcstackBANK1 0000              ?_lcdCtrl_ClearDisplay 0000  
                    ??_seg_DispAll 0000       __end_of_lcdCtrl_OnOffDisplay 0017  
          __end_of_lcdWriteDspData 0018                   ___lwdiv@dividend 0008  
                         ?___awdiv 0000                           ?___awmod 0009  
                         ?___lwdiv 0006                           ?_initADC 0000  
                         ?_initLCD 0000                  lcdWriteCtrlWord@x 0006  
              __end_of_initSysPins 001A                   ___lwdiv@quotient 000B  
                   ___wmul@product 0004  lcdCtrl_OnOffDisplay@display_state 0009  
           dspTaskT_Disp7Seg@count 0004                         _ADCON0bits 0093  
                        main@i_183 004C                          main@i_188 004E  
                ___wmul@multiplier 0000        lcdWriteDspData@upper_nibble 0004  
           ??_lcdCtrl_ClearDisplay 0007       lcdWriteCtrlWord@upper_nibble 0004  
                   _lcdWriteNibble 0000                   ?_lcdWriteDspData 0000  
      lcdCtrl_OnOffDisplay@pattern 000A                        _initSysPins 0000  
             _lcdCtrl_OnOffDisplay 0000             __end_of_lcdWriteNibble 0042  
                  ___lwdiv@divisor 0006                    ___lwdiv@counter 000D  
                         __ptext10 0000                           __ptext11 0000  
                         __ptext12 0000                           __ptext13 0000  
                         __ptext14 0000                           __ptext15 0000  
                         __ptext16 0000                           __ptext17 0000  
                         __ptext18 0000                           __ptext19 0000  
                lcdCtrl_SetPos@col 0007                        _seg_DispAll 0000* 
                lcdCtrl_SetPos@row 0008                   ??_lcdCtrl_SetPos 0008  
               _adc_GetTConversion 0000              dspTaskT_Disp7Seg@temp 0002  
              ?_adc_GetTConversion 0000       __end_of_lcdCtrl_SetEntryMode 0005  
            ?_lcdCtrl_OnOffDisplay 0007                dspTaskW_OnLCD@count 000A  
                  ?_lcdWriteNibble 0000               ??_adc_GetTConversion 0002  
               _adc_GetWConversion 0000                ?_adc_GetWConversion 0000  
                _dspTaskT_Disp7Seg 0000                 ?_dspTaskT_Disp7Seg 0000  
             ??_adc_GetWConversion 0002                ??_dspTaskT_Disp7Seg 0000  
              _lcdCtrl_FunctionSet 0000           adc_GetWConversion@result 0002  
        __end_of_dspTaskT_Disp7Seg 0051                     _dspTaskW_OnLCD 0000  
