

Microchip MPLAB XC8 Assembler V2.41 build 20230208172133 
                                                                                               Thu Jul 13 08:56:44 2023

Microchip MPLAB XC8 C Compiler v2.41 (Free license) build 20230208172133 Og1 
     1                           	processor	16F18877
     2                           	pagewidth 120
     3                           	opt	flic
     4                           	psect	idataBANK1,global,class=CODE,delta=2,noexec
     5                           	psect	idataBANK2,global,class=CODE,delta=2,noexec
     6                           	psect	cinit,global,class=CODE,merge=1,delta=2
     7                           	psect	dataBANK1,global,class=BANK1,space=1,delta=1,noexec
     8                           	psect	dataBANK2,global,class=BANK2,space=1,delta=1,noexec
     9                           	psect	inittext,global,class=CODE,delta=2
    10                           	psect	cstackBANK1,global,class=BANK1,space=1,delta=1,noexec
    11                           	psect	cstackCOMMON,global,class=COMMON,space=1,delta=1,noexec
    12                           	psect	cstackBANK0,global,class=BANK0,space=1,delta=1,noexec
    13                           	psect	maintext,global,class=CODE,merge=1,split=1,delta=2
    14                           	psect	text1,local,class=CODE,merge=1,delta=2
    15                           	psect	text2,local,class=CODE,merge=1,delta=2
    16                           	psect	text3,local,class=CODE,merge=1,delta=2
    17                           	psect	text4,local,class=CODE,merge=1,delta=2
    18                           	psect	text5,local,class=CODE,merge=1,delta=2
    19                           	psect	text6,local,class=CODE,merge=1,delta=2
    20                           	psect	text7,local,class=CODE,merge=1,delta=2
    21                           	psect	text8,local,class=CODE,merge=1,delta=2
    22                           	psect	text9,local,class=CODE,merge=1,delta=2
    23                           	psect	text10,local,class=CODE,merge=1,delta=2,group=1
    24                           	psect	text11,local,class=CODE,merge=1,delta=2,group=1
    25                           	psect	text12,local,class=CODE,merge=1,delta=2
    26                           	psect	text13,local,class=CODE,merge=1,delta=2
    27                           	psect	text14,local,class=CODE,merge=1,delta=2
    28                           	psect	text15,local,class=CODE,merge=1,delta=2
    29                           	psect	text16,local,class=CODE,merge=1,delta=2
    30                           	psect	text17,local,class=CODE,merge=1,delta=2
    31                           	psect	text18,local,class=CODE,merge=1,delta=2,group=1
    32                           	psect	text19,local,class=CODE,merge=1,delta=2,group=1
    33                           	psect	text20,local,class=CODE,merge=1,delta=2,group=1
    34                           	psect	config,global,abs,ovrld,class=CONFIG,space=4,delta=2,noexec
    35                           	dabs	1,0x7E,2
    36     0000                     
    37                           ; Generated 22/03/2023 GMT
    38                           ; 
    39                           ; Copyright Â© 2023, Microchip Technology Inc. and its subsidiaries ("Microchip")
    40                           ; All rights reserved.
    41                           ; 
    42                           ; This software is developed by Microchip Technology Inc. and its subsidiaries ("Microch
      +                          ip").
    43                           ; 
    44                           ; Redistribution and use in source and binary forms, with or without modification, are
    45                           ; permitted provided that the following conditions are met:
    46                           ; 
    47                           ;     1. Redistributions of source code must retain the above copyright notice, this lis
      +                          t of
    48                           ;        conditions and the following disclaimer.
    49                           ; 
    50                           ;     2. Redistributions in binary form must reproduce the above copyright notice, this 
      +                          list
    51                           ;        of conditions and the following disclaimer in the documentation and/or other
    52                           ;        materials provided with the distribution. Publication is not required when
    53                           ;        this file is used in an embedded application.
    54                           ; 
    55                           ;     3. Microchip's name may not be used to endorse or promote products derived from th
      +                          is
    56                           ;        software without specific prior written permission.
    57                           ; 
    58                           ; THIS SOFTWARE IS PROVIDED BY MICROCHIP "AS IS" AND ANY EXPRESS OR IMPLIED WARRANTIES,
    59                           ; INCLUDING, BUT NOT LIMITED TO, THE IMPLIED WARRANTIES OF MERCHANTABILITY AND FITNESS F
      +                          OR
    60                           ; PURPOSE ARE DISCLAIMED.  IN NO EVENT SHALL MICROCHIP BE LIABLE FOR ANY DIRECT, INDIREC
      +                          T,
    61                           ; INCIDENTAL, SPECIAL, EXEMPLARY, OR CONSEQUENTIAL DAMAGES (INCLUDING BUT NOT LIMITED TO
    62                           ; PROCUREMENT OF SUBSTITUTE GOODS OR SERVICES; LOSS OF USE, DATA OR PROFITS; OR BUSINESS
    63                           ; INTERRUPTION) HOWSOEVER CAUSED AND ON ANY THEORY OF LIABILITY, WHETHER IN CONTRACT, ST
      +                          RICT
    64                           ; LIABILITY, OR TORT (INCLUDING NEGLIGENCE OR OTHERWISE) ARISING IN ANY WAY OUT OF THE U
      +                          SE OF
    65                           ; THIS SOFTWARE, EVEN IF ADVISED OF THE POSSIBILITY OF SUCH DAMAGE.
    66                           ; 
    67                           ; 
    68                           ; Code-generator required, PIC16F18877 Definitions
    69                           ; 
    70                           ; SFR Addresses
    71     0000                     	;# 
    72     0001                     	;# 
    73     0002                     	;# 
    74     0003                     	;# 
    75     0004                     	;# 
    76     0005                     	;# 
    77     0006                     	;# 
    78     0007                     	;# 
    79     0008                     	;# 
    80     0009                     	;# 
    81     000A                     	;# 
    82     000B                     	;# 
    83     000C                     	;# 
    84     000D                     	;# 
    85     000E                     	;# 
    86     000F                     	;# 
    87     0010                     	;# 
    88     0011                     	;# 
    89     0012                     	;# 
    90     0013                     	;# 
    91     0014                     	;# 
    92     0015                     	;# 
    93     0016                     	;# 
    94     0017                     	;# 
    95     0018                     	;# 
    96     0019                     	;# 
    97     001A                     	;# 
    98     001C                     	;# 
    99     001C                     	;# 
   100     001D                     	;# 
   101     001D                     	;# 
   102     001E                     	;# 
   103     001F                     	;# 
   104     008C                     	;# 
   105     008C                     	;# 
   106     008D                     	;# 
   107     008E                     	;# 
   108     008E                     	;# 
   109     008F                     	;# 
   110     0090                     	;# 
   111     0090                     	;# 
   112     0091                     	;# 
   113     0093                     	;# 
   114     0094                     	;# 
   115     0095                     	;# 
   116     0096                     	;# 
   117     0097                     	;# 
   118     0098                     	;# 
   119     0099                     	;# 
   120     009A                     	;# 
   121     009B                     	;# 
   122     009C                     	;# 
   123     009D                     	;# 
   124     009E                     	;# 
   125     010C                     	;# 
   126     010D                     	;# 
   127     010E                     	;# 
   128     010E                     	;# 
   129     010F                     	;# 
   130     0110                     	;# 
   131     0110                     	;# 
   132     0111                     	;# 
   133     0112                     	;# 
   134     0112                     	;# 
   135     0113                     	;# 
   136     0114                     	;# 
   137     0114                     	;# 
   138     0115                     	;# 
   139     0116                     	;# 
   140     0116                     	;# 
   141     0117                     	;# 
   142     0119                     	;# 
   143     0119                     	;# 
   144     0119                     	;# 
   145     011A                     	;# 
   146     011A                     	;# 
   147     011A                     	;# 
   148     011B                     	;# 
   149     011B                     	;# 
   150     011B                     	;# 
   151     011B                     	;# 
   152     011B                     	;# 
   153     011C                     	;# 
   154     011C                     	;# 
   155     011C                     	;# 
   156     011D                     	;# 
   157     011D                     	;# 
   158     011D                     	;# 
   159     011E                     	;# 
   160     011E                     	;# 
   161     011E                     	;# 
   162     011F                     	;# 
   163     011F                     	;# 
   164     011F                     	;# 
   165     011F                     	;# 
   166     011F                     	;# 
   167     018C                     	;# 
   168     018D                     	;# 
   169     018E                     	;# 
   170     018F                     	;# 
   171     0190                     	;# 
   172     0191                     	;# 
   173     0192                     	;# 
   174     0196                     	;# 
   175     0197                     	;# 
   176     0198                     	;# 
   177     0199                     	;# 
   178     019A                     	;# 
   179     019B                     	;# 
   180     019C                     	;# 
   181     020C                     	;# 
   182     020C                     	;# 
   183     020D                     	;# 
   184     020E                     	;# 
   185     020F                     	;# 
   186     020F                     	;# 
   187     0210                     	;# 
   188     0210                     	;# 
   189     0211                     	;# 
   190     0211                     	;# 
   191     0212                     	;# 
   192     0212                     	;# 
   193     0213                     	;# 
   194     0214                     	;# 
   195     0215                     	;# 
   196     0215                     	;# 
   197     0216                     	;# 
   198     0216                     	;# 
   199     0217                     	;# 
   200     0217                     	;# 
   201     0218                     	;# 
   202     0218                     	;# 
   203     0219                     	;# 
   204     021A                     	;# 
   205     021B                     	;# 
   206     021B                     	;# 
   207     021C                     	;# 
   208     021C                     	;# 
   209     021D                     	;# 
   210     021D                     	;# 
   211     021E                     	;# 
   212     021F                     	;# 
   213     028C                     	;# 
   214     028C                     	;# 
   215     028D                     	;# 
   216     028D                     	;# 
   217     028E                     	;# 
   218     028F                     	;# 
   219     0290                     	;# 
   220     0290                     	;# 
   221     0291                     	;# 
   222     0292                     	;# 
   223     0292                     	;# 
   224     0293                     	;# 
   225     0293                     	;# 
   226     0294                     	;# 
   227     0295                     	;# 
   228     0296                     	;# 
   229     0296                     	;# 
   230     0297                     	;# 
   231     0298                     	;# 
   232     0298                     	;# 
   233     0299                     	;# 
   234     0299                     	;# 
   235     029A                     	;# 
   236     029B                     	;# 
   237     029C                     	;# 
   238     029C                     	;# 
   239     029D                     	;# 
   240     030C                     	;# 
   241     030C                     	;# 
   242     030D                     	;# 
   243     030E                     	;# 
   244     030F                     	;# 
   245     0310                     	;# 
   246     0310                     	;# 
   247     0311                     	;# 
   248     0312                     	;# 
   249     0313                     	;# 
   250     0314                     	;# 
   251     0314                     	;# 
   252     0315                     	;# 
   253     0316                     	;# 
   254     0317                     	;# 
   255     0318                     	;# 
   256     0318                     	;# 
   257     0319                     	;# 
   258     031A                     	;# 
   259     031B                     	;# 
   260     031C                     	;# 
   261     031C                     	;# 
   262     031D                     	;# 
   263     031E                     	;# 
   264     031F                     	;# 
   265     038C                     	;# 
   266     038C                     	;# 
   267     038D                     	;# 
   268     038E                     	;# 
   269     0390                     	;# 
   270     0390                     	;# 
   271     0391                     	;# 
   272     0392                     	;# 
   273     040C                     	;# 
   274     040D                     	;# 
   275     040E                     	;# 
   276     040F                     	;# 
   277     0410                     	;# 
   278     0411                     	;# 
   279     0416                     	;# 
   280     0416                     	;# 
   281     0417                     	;# 
   282     0418                     	;# 
   283     0418                     	;# 
   284     0419                     	;# 
   285     041A                     	;# 
   286     041A                     	;# 
   287     041B                     	;# 
   288     041C                     	;# 
   289     041C                     	;# 
   290     041D                     	;# 
   291     041E                     	;# 
   292     041F                     	;# 
   293     048C                     	;# 
   294     048C                     	;# 
   295     048D                     	;# 
   296     048E                     	;# 
   297     048F                     	;# 
   298     048F                     	;# 
   299     0490                     	;# 
   300     0491                     	;# 
   301     0492                     	;# 
   302     0492                     	;# 
   303     0493                     	;# 
   304     0494                     	;# 
   305     0495                     	;# 
   306     0495                     	;# 
   307     0496                     	;# 
   308     0497                     	;# 
   309     0498                     	;# 
   310     0499                     	;# 
   311     049A                     	;# 
   312     049B                     	;# 
   313     049C                     	;# 
   314     049D                     	;# 
   315     050C                     	;# 
   316     050C                     	;# 
   317     050D                     	;# 
   318     050E                     	;# 
   319     050F                     	;# 
   320     050F                     	;# 
   321     0510                     	;# 
   322     0511                     	;# 
   323     0512                     	;# 
   324     0512                     	;# 
   325     0513                     	;# 
   326     0514                     	;# 
   327     0515                     	;# 
   328     0515                     	;# 
   329     0516                     	;# 
   330     0517                     	;# 
   331     0518                     	;# 
   332     0519                     	;# 
   333     051A                     	;# 
   334     051B                     	;# 
   335     051C                     	;# 
   336     051D                     	;# 
   337     058C                     	;# 
   338     058C                     	;# 
   339     058D                     	;# 
   340     058E                     	;# 
   341     058F                     	;# 
   342     058F                     	;# 
   343     0590                     	;# 
   344     0591                     	;# 
   345     0592                     	;# 
   346     0593                     	;# 
   347     060C                     	;# 
   348     060D                     	;# 
   349     060E                     	;# 
   350     060F                     	;# 
   351     0610                     	;# 
   352     0611                     	;# 
   353     0612                     	;# 
   354     0613                     	;# 
   355     0614                     	;# 
   356     0616                     	;# 
   357     0617                     	;# 
   358     0618                     	;# 
   359     0619                     	;# 
   360     061A                     	;# 
   361     061B                     	;# 
   362     061C                     	;# 
   363     061D                     	;# 
   364     061E                     	;# 
   365     068C                     	;# 
   366     068D                     	;# 
   367     068E                     	;# 
   368     068F                     	;# 
   369     0690                     	;# 
   370     0691                     	;# 
   371     0692                     	;# 
   372     0693                     	;# 
   373     0694                     	;# 
   374     070C                     	;# 
   375     070D                     	;# 
   376     070E                     	;# 
   377     070F                     	;# 
   378     0710                     	;# 
   379     0711                     	;# 
   380     0712                     	;# 
   381     0713                     	;# 
   382     0714                     	;# 
   383     0716                     	;# 
   384     0717                     	;# 
   385     0718                     	;# 
   386     0719                     	;# 
   387     071A                     	;# 
   388     071B                     	;# 
   389     071C                     	;# 
   390     071D                     	;# 
   391     071E                     	;# 
   392     0796                     	;# 
   393     0797                     	;# 
   394     0798                     	;# 
   395     0799                     	;# 
   396     079A                     	;# 
   397     079B                     	;# 
   398     080C                     	;# 
   399     080D                     	;# 
   400     080E                     	;# 
   401     080F                     	;# 
   402     0810                     	;# 
   403     0811                     	;# 
   404     0812                     	;# 
   405     0813                     	;# 
   406     0814                     	;# 
   407     081A                     	;# 
   408     081B                     	;# 
   409     081C                     	;# 
   410     081D                     	;# 
   411     081E                     	;# 
   412     081F                     	;# 
   413     088C                     	;# 
   414     088D                     	;# 
   415     088E                     	;# 
   416     088F                     	;# 
   417     0890                     	;# 
   418     0891                     	;# 
   419     0892                     	;# 
   420     0893                     	;# 
   421     0895                     	;# 
   422     0896                     	;# 
   423     0897                     	;# 
   424     0898                     	;# 
   425     0899                     	;# 
   426     089A                     	;# 
   427     089B                     	;# 
   428     090C                     	;# 
   429     090E                     	;# 
   430     090F                     	;# 
   431     091F                     	;# 
   432     098F                     	;# 
   433     098F                     	;# 
   434     0990                     	;# 
   435     0991                     	;# 
   436     0992                     	;# 
   437     0993                     	;# 
   438     0994                     	;# 
   439     0995                     	;# 
   440     0996                     	;# 
   441     0997                     	;# 
   442     1E0F                     	;# 
   443     1E10                     	;# 
   444     1E11                     	;# 
   445     1E12                     	;# 
   446     1E13                     	;# 
   447     1E14                     	;# 
   448     1E15                     	;# 
   449     1E16                     	;# 
   450     1E17                     	;# 
   451     1E18                     	;# 
   452     1E19                     	;# 
   453     1E1A                     	;# 
   454     1E1B                     	;# 
   455     1E1C                     	;# 
   456     1E1D                     	;# 
   457     1E1E                     	;# 
   458     1E1F                     	;# 
   459     1E20                     	;# 
   460     1E21                     	;# 
   461     1E22                     	;# 
   462     1E23                     	;# 
   463     1E24                     	;# 
   464     1E25                     	;# 
   465     1E26                     	;# 
   466     1E27                     	;# 
   467     1E28                     	;# 
   468     1E29                     	;# 
   469     1E2A                     	;# 
   470     1E2B                     	;# 
   471     1E2C                     	;# 
   472     1E2D                     	;# 
   473     1E2E                     	;# 
   474     1E2F                     	;# 
   475     1E30                     	;# 
   476     1E31                     	;# 
   477     1E32                     	;# 
   478     1E33                     	;# 
   479     1E34                     	;# 
   480     1E35                     	;# 
   481     1E36                     	;# 
   482     1E37                     	;# 
   483     1E8F                     	;# 
   484     1E90                     	;# 
   485     1E91                     	;# 
   486     1E92                     	;# 
   487     1E93                     	;# 
   488     1E94                     	;# 
   489     1E95                     	;# 
   490     1E96                     	;# 
   491     1E97                     	;# 
   492     1E9C                     	;# 
   493     1E9D                     	;# 
   494     1E9E                     	;# 
   495     1EA1                     	;# 
   496     1EA2                     	;# 
   497     1EA3                     	;# 
   498     1EA4                     	;# 
   499     1EA5                     	;# 
   500     1EA9                     	;# 
   501     1EAA                     	;# 
   502     1EAB                     	;# 
   503     1EAC                     	;# 
   504     1EB1                     	;# 
   505     1EB2                     	;# 
   506     1EB3                     	;# 
   507     1EB8                     	;# 
   508     1EB9                     	;# 
   509     1EBA                     	;# 
   510     1EBB                     	;# 
   511     1EBC                     	;# 
   512     1EBD                     	;# 
   513     1EBE                     	;# 
   514     1EC3                     	;# 
   515     1EC5                     	;# 
   516     1EC6                     	;# 
   517     1EC7                     	;# 
   518     1EC8                     	;# 
   519     1EC9                     	;# 
   520     1ECA                     	;# 
   521     1ECB                     	;# 
   522     1ECC                     	;# 
   523     1F10                     	;# 
   524     1F11                     	;# 
   525     1F12                     	;# 
   526     1F13                     	;# 
   527     1F14                     	;# 
   528     1F15                     	;# 
   529     1F16                     	;# 
   530     1F17                     	;# 
   531     1F18                     	;# 
   532     1F19                     	;# 
   533     1F1A                     	;# 
   534     1F1B                     	;# 
   535     1F1C                     	;# 
   536     1F1D                     	;# 
   537     1F1E                     	;# 
   538     1F1F                     	;# 
   539     1F20                     	;# 
   540     1F21                     	;# 
   541     1F22                     	;# 
   542     1F23                     	;# 
   543     1F24                     	;# 
   544     1F25                     	;# 
   545     1F26                     	;# 
   546     1F27                     	;# 
   547     1F28                     	;# 
   548     1F29                     	;# 
   549     1F2A                     	;# 
   550     1F2B                     	;# 
   551     1F2C                     	;# 
   552     1F2D                     	;# 
   553     1F2E                     	;# 
   554     1F2F                     	;# 
   555     1F30                     	;# 
   556     1F31                     	;# 
   557     1F32                     	;# 
   558     1F38                     	;# 
   559     1F39                     	;# 
   560     1F3A                     	;# 
   561     1F3B                     	;# 
   562     1F3C                     	;# 
   563     1F3D                     	;# 
   564     1F3E                     	;# 
   565     1F3F                     	;# 
   566     1F40                     	;# 
   567     1F41                     	;# 
   568     1F43                     	;# 
   569     1F44                     	;# 
   570     1F45                     	;# 
   571     1F46                     	;# 
   572     1F47                     	;# 
   573     1F48                     	;# 
   574     1F49                     	;# 
   575     1F4A                     	;# 
   576     1F4B                     	;# 
   577     1F4C                     	;# 
   578     1F4E                     	;# 
   579     1F4F                     	;# 
   580     1F50                     	;# 
   581     1F51                     	;# 
   582     1F52                     	;# 
   583     1F53                     	;# 
   584     1F54                     	;# 
   585     1F55                     	;# 
   586     1F56                     	;# 
   587     1F57                     	;# 
   588     1F59                     	;# 
   589     1F5A                     	;# 
   590     1F5B                     	;# 
   591     1F5C                     	;# 
   592     1F5D                     	;# 
   593     1F61                     	;# 
   594     1F62                     	;# 
   595     1F64                     	;# 
   596     1F65                     	;# 
   597     1F66                     	;# 
   598     1F67                     	;# 
   599     1F68                     	;# 
   600     1F69                     	;# 
   601     1F6A                     	;# 
   602     1F6B                     	;# 
   603     1F6C                     	;# 
   604     1F6D                     	;# 
   605     1FE4                     	;# 
   606     1FE5                     	;# 
   607     1FE6                     	;# 
   608     1FE7                     	;# 
   609     1FE8                     	;# 
   610     1FE9                     	;# 
   611     1FEA                     	;# 
   612     1FEB                     	;# 
   613     1FED                     	;# 
   614     1FEE                     	;# 
   615     1FEF                     	;# 
   616     0000                     	;# 
   617     0001                     	;# 
   618     0002                     	;# 
   619     0003                     	;# 
   620     0004                     	;# 
   621     0005                     	;# 
   622     0006                     	;# 
   623     0007                     	;# 
   624     0008                     	;# 
   625     0009                     	;# 
   626     000A                     	;# 
   627     000B                     	;# 
   628     000C                     	;# 
   629     000D                     	;# 
   630     000E                     	;# 
   631     000F                     	;# 
   632     0010                     	;# 
   633     0011                     	;# 
   634     0012                     	;# 
   635     0013                     	;# 
   636     0014                     	;# 
   637     0015                     	;# 
   638     0016                     	;# 
   639     0017                     	;# 
   640     0018                     	;# 
   641     0019                     	;# 
   642     001A                     	;# 
   643     001C                     	;# 
   644     001C                     	;# 
   645     001D                     	;# 
   646     001D                     	;# 
   647     001E                     	;# 
   648     001F                     	;# 
   649     008C                     	;# 
   650     008C                     	;# 
   651     008D                     	;# 
   652     008E                     	;# 
   653     008E                     	;# 
   654     008F                     	;# 
   655     0090                     	;# 
   656     0090                     	;# 
   657     0091                     	;# 
   658     0093                     	;# 
   659     0094                     	;# 
   660     0095                     	;# 
   661     0096                     	;# 
   662     0097                     	;# 
   663     0098                     	;# 
   664     0099                     	;# 
   665     009A                     	;# 
   666     009B                     	;# 
   667     009C                     	;# 
   668     009D                     	;# 
   669     009E                     	;# 
   670     010C                     	;# 
   671     010D                     	;# 
   672     010E                     	;# 
   673     010E                     	;# 
   674     010F                     	;# 
   675     0110                     	;# 
   676     0110                     	;# 
   677     0111                     	;# 
   678     0112                     	;# 
   679     0112                     	;# 
   680     0113                     	;# 
   681     0114                     	;# 
   682     0114                     	;# 
   683     0115                     	;# 
   684     0116                     	;# 
   685     0116                     	;# 
   686     0117                     	;# 
   687     0119                     	;# 
   688     0119                     	;# 
   689     0119                     	;# 
   690     011A                     	;# 
   691     011A                     	;# 
   692     011A                     	;# 
   693     011B                     	;# 
   694     011B                     	;# 
   695     011B                     	;# 
   696     011B                     	;# 
   697     011B                     	;# 
   698     011C                     	;# 
   699     011C                     	;# 
   700     011C                     	;# 
   701     011D                     	;# 
   702     011D                     	;# 
   703     011D                     	;# 
   704     011E                     	;# 
   705     011E                     	;# 
   706     011E                     	;# 
   707     011F                     	;# 
   708     011F                     	;# 
   709     011F                     	;# 
   710     011F                     	;# 
   711     011F                     	;# 
   712     018C                     	;# 
   713     018D                     	;# 
   714     018E                     	;# 
   715     018F                     	;# 
   716     0190                     	;# 
   717     0191                     	;# 
   718     0192                     	;# 
   719     0196                     	;# 
   720     0197                     	;# 
   721     0198                     	;# 
   722     0199                     	;# 
   723     019A                     	;# 
   724     019B                     	;# 
   725     019C                     	;# 
   726     020C                     	;# 
   727     020C                     	;# 
   728     020D                     	;# 
   729     020E                     	;# 
   730     020F                     	;# 
   731     020F                     	;# 
   732     0210                     	;# 
   733     0210                     	;# 
   734     0211                     	;# 
   735     0211                     	;# 
   736     0212                     	;# 
   737     0212                     	;# 
   738     0213                     	;# 
   739     0214                     	;# 
   740     0215                     	;# 
   741     0215                     	;# 
   742     0216                     	;# 
   743     0216                     	;# 
   744     0217                     	;# 
   745     0217                     	;# 
   746     0218                     	;# 
   747     0218                     	;# 
   748     0219                     	;# 
   749     021A                     	;# 
   750     021B                     	;# 
   751     021B                     	;# 
   752     021C                     	;# 
   753     021C                     	;# 
   754     021D                     	;# 
   755     021D                     	;# 
   756     021E                     	;# 
   757     021F                     	;# 
   758     028C                     	;# 
   759     028C                     	;# 
   760     028D                     	;# 
   761     028D                     	;# 
   762     028E                     	;# 
   763     028F                     	;# 
   764     0290                     	;# 
   765     0290                     	;# 
   766     0291                     	;# 
   767     0292                     	;# 
   768     0292                     	;# 
   769     0293                     	;# 
   770     0293                     	;# 
   771     0294                     	;# 
   772     0295                     	;# 
   773     0296                     	;# 
   774     0296                     	;# 
   775     0297                     	;# 
   776     0298                     	;# 
   777     0298                     	;# 
   778     0299                     	;# 
   779     0299                     	;# 
   780     029A                     	;# 
   781     029B                     	;# 
   782     029C                     	;# 
   783     029C                     	;# 
   784     029D                     	;# 
   785     030C                     	;# 
   786     030C                     	;# 
   787     030D                     	;# 
   788     030E                     	;# 
   789     030F                     	;# 
   790     0310                     	;# 
   791     0310                     	;# 
   792     0311                     	;# 
   793     0312                     	;# 
   794     0313                     	;# 
   795     0314                     	;# 
   796     0314                     	;# 
   797     0315                     	;# 
   798     0316                     	;# 
   799     0317                     	;# 
   800     0318                     	;# 
   801     0318                     	;# 
   802     0319                     	;# 
   803     031A                     	;# 
   804     031B                     	;# 
   805     031C                     	;# 
   806     031C                     	;# 
   807     031D                     	;# 
   808     031E                     	;# 
   809     031F                     	;# 
   810     038C                     	;# 
   811     038C                     	;# 
   812     038D                     	;# 
   813     038E                     	;# 
   814     0390                     	;# 
   815     0390                     	;# 
   816     0391                     	;# 
   817     0392                     	;# 
   818     040C                     	;# 
   819     040D                     	;# 
   820     040E                     	;# 
   821     040F                     	;# 
   822     0410                     	;# 
   823     0411                     	;# 
   824     0416                     	;# 
   825     0416                     	;# 
   826     0417                     	;# 
   827     0418                     	;# 
   828     0418                     	;# 
   829     0419                     	;# 
   830     041A                     	;# 
   831     041A                     	;# 
   832     041B                     	;# 
   833     041C                     	;# 
   834     041C                     	;# 
   835     041D                     	;# 
   836     041E                     	;# 
   837     041F                     	;# 
   838     048C                     	;# 
   839     048C                     	;# 
   840     048D                     	;# 
   841     048E                     	;# 
   842     048F                     	;# 
   843     048F                     	;# 
   844     0490                     	;# 
   845     0491                     	;# 
   846     0492                     	;# 
   847     0492                     	;# 
   848     0493                     	;# 
   849     0494                     	;# 
   850     0495                     	;# 
   851     0495                     	;# 
   852     0496                     	;# 
   853     0497                     	;# 
   854     0498                     	;# 
   855     0499                     	;# 
   856     049A                     	;# 
   857     049B                     	;# 
   858     049C                     	;# 
   859     049D                     	;# 
   860     050C                     	;# 
   861     050C                     	;# 
   862     050D                     	;# 
   863     050E                     	;# 
   864     050F                     	;# 
   865     050F                     	;# 
   866     0510                     	;# 
   867     0511                     	;# 
   868     0512                     	;# 
   869     0512                     	;# 
   870     0513                     	;# 
   871     0514                     	;# 
   872     0515                     	;# 
   873     0515                     	;# 
   874     0516                     	;# 
   875     0517                     	;# 
   876     0518                     	;# 
   877     0519                     	;# 
   878     051A                     	;# 
   879     051B                     	;# 
   880     051C                     	;# 
   881     051D                     	;# 
   882     058C                     	;# 
   883     058C                     	;# 
   884     058D                     	;# 
   885     058E                     	;# 
   886     058F                     	;# 
   887     058F                     	;# 
   888     0590                     	;# 
   889     0591                     	;# 
   890     0592                     	;# 
   891     0593                     	;# 
   892     060C                     	;# 
   893     060D                     	;# 
   894     060E                     	;# 
   895     060F                     	;# 
   896     0610                     	;# 
   897     0611                     	;# 
   898     0612                     	;# 
   899     0613                     	;# 
   900     0614                     	;# 
   901     0616                     	;# 
   902     0617                     	;# 
   903     0618                     	;# 
   904     0619                     	;# 
   905     061A                     	;# 
   906     061B                     	;# 
   907     061C                     	;# 
   908     061D                     	;# 
   909     061E                     	;# 
   910     068C                     	;# 
   911     068D                     	;# 
   912     068E                     	;# 
   913     068F                     	;# 
   914     0690                     	;# 
   915     0691                     	;# 
   916     0692                     	;# 
   917     0693                     	;# 
   918     0694                     	;# 
   919     070C                     	;# 
   920     070D                     	;# 
   921     070E                     	;# 
   922     070F                     	;# 
   923     0710                     	;# 
   924     0711                     	;# 
   925     0712                     	;# 
   926     0713                     	;# 
   927     0714                     	;# 
   928     0716                     	;# 
   929     0717                     	;# 
   930     0718                     	;# 
   931     0719                     	;# 
   932     071A                     	;# 
   933     071B                     	;# 
   934     071C                     	;# 
   935     071D                     	;# 
   936     071E                     	;# 
   937     0796                     	;# 
   938     0797                     	;# 
   939     0798                     	;# 
   940     0799                     	;# 
   941     079A                     	;# 
   942     079B                     	;# 
   943     080C                     	;# 
   944     080D                     	;# 
   945     080E                     	;# 
   946     080F                     	;# 
   947     0810                     	;# 
   948     0811                     	;# 
   949     0812                     	;# 
   950     0813                     	;# 
   951     0814                     	;# 
   952     081A                     	;# 
   953     081B                     	;# 
   954     081C                     	;# 
   955     081D                     	;# 
   956     081E                     	;# 
   957     081F                     	;# 
   958     088C                     	;# 
   959     088D                     	;# 
   960     088E                     	;# 
   961     088F                     	;# 
   962     0890                     	;# 
   963     0891                     	;# 
   964     0892                     	;# 
   965     0893                     	;# 
   966     0895                     	;# 
   967     0896                     	;# 
   968     0897                     	;# 
   969     0898                     	;# 
   970     0899                     	;# 
   971     089A                     	;# 
   972     089B                     	;# 
   973     090C                     	;# 
   974     090E                     	;# 
   975     090F                     	;# 
   976     091F                     	;# 
   977     098F                     	;# 
   978     098F                     	;# 
   979     0990                     	;# 
   980     0991                     	;# 
   981     0992                     	;# 
   982     0993                     	;# 
   983     0994                     	;# 
   984     0995                     	;# 
   985     0996                     	;# 
   986     0997                     	;# 
   987     1E0F                     	;# 
   988     1E10                     	;# 
   989     1E11                     	;# 
   990     1E12                     	;# 
   991     1E13                     	;# 
   992     1E14                     	;# 
   993     1E15                     	;# 
   994     1E16                     	;# 
   995     1E17                     	;# 
   996     1E18                     	;# 
   997     1E19                     	;# 
   998     1E1A                     	;# 
   999     1E1B                     	;# 
  1000     1E1C                     	;# 
  1001     1E1D                     	;# 
  1002     1E1E                     	;# 
  1003     1E1F                     	;# 
  1004     1E20                     	;# 
  1005     1E21                     	;# 
  1006     1E22                     	;# 
  1007     1E23                     	;# 
  1008     1E24                     	;# 
  1009     1E25                     	;# 
  1010     1E26                     	;# 
  1011     1E27                     	;# 
  1012     1E28                     	;# 
  1013     1E29                     	;# 
  1014     1E2A                     	;# 
  1015     1E2B                     	;# 
  1016     1E2C                     	;# 
  1017     1E2D                     	;# 
  1018     1E2E                     	;# 
  1019     1E2F                     	;# 
  1020     1E30                     	;# 
  1021     1E31                     	;# 
  1022     1E32                     	;# 
  1023     1E33                     	;# 
  1024     1E34                     	;# 
  1025     1E35                     	;# 
  1026     1E36                     	;# 
  1027     1E37                     	;# 
  1028     1E8F                     	;# 
  1029     1E90                     	;# 
  1030     1E91                     	;# 
  1031     1E92                     	;# 
  1032     1E93                     	;# 
  1033     1E94                     	;# 
  1034     1E95                     	;# 
  1035     1E96                     	;# 
  1036     1E97                     	;# 
  1037     1E9C                     	;# 
  1038     1E9D                     	;# 
  1039     1E9E                     	;# 
  1040     1EA1                     	;# 
  1041     1EA2                     	;# 
  1042     1EA3                     	;# 
  1043     1EA4                     	;# 
  1044     1EA5                     	;# 
  1045     1EA9                     	;# 
  1046     1EAA                     	;# 
  1047     1EAB                     	;# 
  1048     1EAC                     	;# 
  1049     1EB1                     	;# 
  1050     1EB2                     	;# 
  1051     1EB3                     	;# 
  1052     1EB8                     	;# 
  1053     1EB9                     	;# 
  1054     1EBA                     	;# 
  1055     1EBB                     	;# 
  1056     1EBC                     	;# 
  1057     1EBD                     	;# 
  1058     1EBE                     	;# 
  1059     1EC3                     	;# 
  1060     1EC5                     	;# 
  1061     1EC6                     	;# 
  1062     1EC7                     	;# 
  1063     1EC8                     	;# 
  1064     1EC9                     	;# 
  1065     1ECA                     	;# 
  1066     1ECB                     	;# 
  1067     1ECC                     	;# 
  1068     1F10                     	;# 
  1069     1F11                     	;# 
  1070     1F12                     	;# 
  1071     1F13                     	;# 
  1072     1F14                     	;# 
  1073     1F15                     	;# 
  1074     1F16                     	;# 
  1075     1F17                     	;# 
  1076     1F18                     	;# 
  1077     1F19                     	;# 
  1078     1F1A                     	;# 
  1079     1F1B                     	;# 
  1080     1F1C                     	;# 
  1081     1F1D                     	;# 
  1082     1F1E                     	;# 
  1083     1F1F                     	;# 
  1084     1F20                     	;# 
  1085     1F21                     	;# 
  1086     1F22                     	;# 
  1087     1F23                     	;# 
  1088     1F24                     	;# 
  1089     1F25                     	;# 
  1090     1F26                     	;# 
  1091     1F27                     	;# 
  1092     1F28                     	;# 
  1093     1F29                     	;# 
  1094     1F2A                     	;# 
  1095     1F2B                     	;# 
  1096     1F2C                     	;# 
  1097     1F2D                     	;# 
  1098     1F2E                     	;# 
  1099     1F2F                     	;# 
  1100     1F30                     	;# 
  1101     1F31                     	;# 
  1102     1F32                     	;# 
  1103     1F38                     	;# 
  1104     1F39                     	;# 
  1105     1F3A                     	;# 
  1106     1F3B                     	;# 
  1107     1F3C                     	;# 
  1108     1F3D                     	;# 
  1109     1F3E                     	;# 
  1110     1F3F                     	;# 
  1111     1F40                     	;# 
  1112     1F41                     	;# 
  1113     1F43                     	;# 
  1114     1F44                     	;# 
  1115     1F45                     	;# 
  1116     1F46                     	;# 
  1117     1F47                     	;# 
  1118     1F48                     	;# 
  1119     1F49                     	;# 
  1120     1F4A                     	;# 
  1121     1F4B                     	;# 
  1122     1F4C                     	;# 
  1123     1F4E                     	;# 
  1124     1F4F                     	;# 
  1125     1F50                     	;# 
  1126     1F51                     	;# 
  1127     1F52                     	;# 
  1128     1F53                     	;# 
  1129     1F54                     	;# 
  1130     1F55                     	;# 
  1131     1F56                     	;# 
  1132     1F57                     	;# 
  1133     1F59                     	;# 
  1134     1F5A                     	;# 
  1135     1F5B                     	;# 
  1136     1F5C                     	;# 
  1137     1F5D                     	;# 
  1138     1F61                     	;# 
  1139     1F62                     	;# 
  1140     1F64                     	;# 
  1141     1F65                     	;# 
  1142     1F66                     	;# 
  1143     1F67                     	;# 
  1144     1F68                     	;# 
  1145     1F69                     	;# 
  1146     1F6A                     	;# 
  1147     1F6B                     	;# 
  1148     1F6C                     	;# 
  1149     1F6D                     	;# 
  1150     1FE4                     	;# 
  1151     1FE5                     	;# 
  1152     1FE6                     	;# 
  1153     1FE7                     	;# 
  1154     1FE8                     	;# 
  1155     1FE9                     	;# 
  1156     1FEA                     	;# 
  1157     1FEB                     	;# 
  1158     1FED                     	;# 
  1159     1FEE                     	;# 
  1160     1FEF                     	;# 
  1161     0000                     	;# 
  1162     0001                     	;# 
  1163     0002                     	;# 
  1164     0003                     	;# 
  1165     0004                     	;# 
  1166     0005                     	;# 
  1167     0006                     	;# 
  1168     0007                     	;# 
  1169     0008                     	;# 
  1170     0009                     	;# 
  1171     000A                     	;# 
  1172     000B                     	;# 
  1173     000C                     	;# 
  1174     000D                     	;# 
  1175     000E                     	;# 
  1176     000F                     	;# 
  1177     0010                     	;# 
  1178     0011                     	;# 
  1179     0012                     	;# 
  1180     0013                     	;# 
  1181     0014                     	;# 
  1182     0015                     	;# 
  1183     0016                     	;# 
  1184     0017                     	;# 
  1185     0018                     	;# 
  1186     0019                     	;# 
  1187     001A                     	;# 
  1188     001C                     	;# 
  1189     001C                     	;# 
  1190     001D                     	;# 
  1191     001D                     	;# 
  1192     001E                     	;# 
  1193     001F                     	;# 
  1194     008C                     	;# 
  1195     008C                     	;# 
  1196     008D                     	;# 
  1197     008E                     	;# 
  1198     008E                     	;# 
  1199     008F                     	;# 
  1200     0090                     	;# 
  1201     0090                     	;# 
  1202     0091                     	;# 
  1203     0093                     	;# 
  1204     0094                     	;# 
  1205     0095                     	;# 
  1206     0096                     	;# 
  1207     0097                     	;# 
  1208     0098                     	;# 
  1209     0099                     	;# 
  1210     009A                     	;# 
  1211     009B                     	;# 
  1212     009C                     	;# 
  1213     009D                     	;# 
  1214     009E                     	;# 
  1215     010C                     	;# 
  1216     010D                     	;# 
  1217     010E                     	;# 
  1218     010E                     	;# 
  1219     010F                     	;# 
  1220     0110                     	;# 
  1221     0110                     	;# 
  1222     0111                     	;# 
  1223     0112                     	;# 
  1224     0112                     	;# 
  1225     0113                     	;# 
  1226     0114                     	;# 
  1227     0114                     	;# 
  1228     0115                     	;# 
  1229     0116                     	;# 
  1230     0116                     	;# 
  1231     0117                     	;# 
  1232     0119                     	;# 
  1233     0119                     	;# 
  1234     0119                     	;# 
  1235     011A                     	;# 
  1236     011A                     	;# 
  1237     011A                     	;# 
  1238     011B                     	;# 
  1239     011B                     	;# 
  1240     011B                     	;# 
  1241     011B                     	;# 
  1242     011B                     	;# 
  1243     011C                     	;# 
  1244     011C                     	;# 
  1245     011C                     	;# 
  1246     011D                     	;# 
  1247     011D                     	;# 
  1248     011D                     	;# 
  1249     011E                     	;# 
  1250     011E                     	;# 
  1251     011E                     	;# 
  1252     011F                     	;# 
  1253     011F                     	;# 
  1254     011F                     	;# 
  1255     011F                     	;# 
  1256     011F                     	;# 
  1257     018C                     	;# 
  1258     018D                     	;# 
  1259     018E                     	;# 
  1260     018F                     	;# 
  1261     0190                     	;# 
  1262     0191                     	;# 
  1263     0192                     	;# 
  1264     0196                     	;# 
  1265     0197                     	;# 
  1266     0198                     	;# 
  1267     0199                     	;# 
  1268     019A                     	;# 
  1269     019B                     	;# 
  1270     019C                     	;# 
  1271     020C                     	;# 
  1272     020C                     	;# 
  1273     020D                     	;# 
  1274     020E                     	;# 
  1275     020F                     	;# 
  1276     020F                     	;# 
  1277     0210                     	;# 
  1278     0210                     	;# 
  1279     0211                     	;# 
  1280     0211                     	;# 
  1281     0212                     	;# 
  1282     0212                     	;# 
  1283     0213                     	;# 
  1284     0214                     	;# 
  1285     0215                     	;# 
  1286     0215                     	;# 
  1287     0216                     	;# 
  1288     0216                     	;# 
  1289     0217                     	;# 
  1290     0217                     	;# 
  1291     0218                     	;# 
  1292     0218                     	;# 
  1293     0219                     	;# 
  1294     021A                     	;# 
  1295     021B                     	;# 
  1296     021B                     	;# 
  1297     021C                     	;# 
  1298     021C                     	;# 
  1299     021D                     	;# 
  1300     021D                     	;# 
  1301     021E                     	;# 
  1302     021F                     	;# 
  1303     028C                     	;# 
  1304     028C                     	;# 
  1305     028D                     	;# 
  1306     028D                     	;# 
  1307     028E                     	;# 
  1308     028F                     	;# 
  1309     0290                     	;# 
  1310     0290                     	;# 
  1311     0291                     	;# 
  1312     0292                     	;# 
  1313     0292                     	;# 
  1314     0293                     	;# 
  1315     0293                     	;# 
  1316     0294                     	;# 
  1317     0295                     	;# 
  1318     0296                     	;# 
  1319     0296                     	;# 
  1320     0297                     	;# 
  1321     0298                     	;# 
  1322     0298                     	;# 
  1323     0299                     	;# 
  1324     0299                     	;# 
  1325     029A                     	;# 
  1326     029B                     	;# 
  1327     029C                     	;# 
  1328     029C                     	;# 
  1329     029D                     	;# 
  1330     030C                     	;# 
  1331     030C                     	;# 
  1332     030D                     	;# 
  1333     030E                     	;# 
  1334     030F                     	;# 
  1335     0310                     	;# 
  1336     0310                     	;# 
  1337     0311                     	;# 
  1338     0312                     	;# 
  1339     0313                     	;# 
  1340     0314                     	;# 
  1341     0314                     	;# 
  1342     0315                     	;# 
  1343     0316                     	;# 
  1344     0317                     	;# 
  1345     0318                     	;# 
  1346     0318                     	;# 
  1347     0319                     	;# 
  1348     031A                     	;# 
  1349     031B                     	;# 
  1350     031C                     	;# 
  1351     031C                     	;# 
  1352     031D                     	;# 
  1353     031E                     	;# 
  1354     031F                     	;# 
  1355     038C                     	;# 
  1356     038C                     	;# 
  1357     038D                     	;# 
  1358     038E                     	;# 
  1359     0390                     	;# 
  1360     0390                     	;# 
  1361     0391                     	;# 
  1362     0392                     	;# 
  1363     040C                     	;# 
  1364     040D                     	;# 
  1365     040E                     	;# 
  1366     040F                     	;# 
  1367     0410                     	;# 
  1368     0411                     	;# 
  1369     0416                     	;# 
  1370     0416                     	;# 
  1371     0417                     	;# 
  1372     0418                     	;# 
  1373     0418                     	;# 
  1374     0419                     	;# 
  1375     041A                     	;# 
  1376     041A                     	;# 
  1377     041B                     	;# 
  1378     041C                     	;# 
  1379     041C                     	;# 
  1380     041D                     	;# 
  1381     041E                     	;# 
  1382     041F                     	;# 
  1383     048C                     	;# 
  1384     048C                     	;# 
  1385     048D                     	;# 
  1386     048E                     	;# 
  1387     048F                     	;# 
  1388     048F                     	;# 
  1389     0490                     	;# 
  1390     0491                     	;# 
  1391     0492                     	;# 
  1392     0492                     	;# 
  1393     0493                     	;# 
  1394     0494                     	;# 
  1395     0495                     	;# 
  1396     0495                     	;# 
  1397     0496                     	;# 
  1398     0497                     	;# 
  1399     0498                     	;# 
  1400     0499                     	;# 
  1401     049A                     	;# 
  1402     049B                     	;# 
  1403     049C                     	;# 
  1404     049D                     	;# 
  1405     050C                     	;# 
  1406     050C                     	;# 
  1407     050D                     	;# 
  1408     050E                     	;# 
  1409     050F                     	;# 
  1410     050F                     	;# 
  1411     0510                     	;# 
  1412     0511                     	;# 
  1413     0512                     	;# 
  1414     0512                     	;# 
  1415     0513                     	;# 
  1416     0514                     	;# 
  1417     0515                     	;# 
  1418     0515                     	;# 
  1419     0516                     	;# 
  1420     0517                     	;# 
  1421     0518                     	;# 
  1422     0519                     	;# 
  1423     051A                     	;# 
  1424     051B                     	;# 
  1425     051C                     	;# 
  1426     051D                     	;# 
  1427     058C                     	;# 
  1428     058C                     	;# 
  1429     058D                     	;# 
  1430     058E                     	;# 
  1431     058F                     	;# 
  1432     058F                     	;# 
  1433     0590                     	;# 
  1434     0591                     	;# 
  1435     0592                     	;# 
  1436     0593                     	;# 
  1437     060C                     	;# 
  1438     060D                     	;# 
  1439     060E                     	;# 
  1440     060F                     	;# 
  1441     0610                     	;# 
  1442     0611                     	;# 
  1443     0612                     	;# 
  1444     0613                     	;# 
  1445     0614                     	;# 
  1446     0616                     	;# 
  1447     0617                     	;# 
  1448     0618                     	;# 
  1449     0619                     	;# 
  1450     061A                     	;# 
  1451     061B                     	;# 
  1452     061C                     	;# 
  1453     061D                     	;# 
  1454     061E                     	;# 
  1455     068C                     	;# 
  1456     068D                     	;# 
  1457     068E                     	;# 
  1458     068F                     	;# 
  1459     0690                     	;# 
  1460     0691                     	;# 
  1461     0692                     	;# 
  1462     0693                     	;# 
  1463     0694                     	;# 
  1464     070C                     	;# 
  1465     070D                     	;# 
  1466     070E                     	;# 
  1467     070F                     	;# 
  1468     0710                     	;# 
  1469     0711                     	;# 
  1470     0712                     	;# 
  1471     0713                     	;# 
  1472     0714                     	;# 
  1473     0716                     	;# 
  1474     0717                     	;# 
  1475     0718                     	;# 
  1476     0719                     	;# 
  1477     071A                     	;# 
  1478     071B                     	;# 
  1479     071C                     	;# 
  1480     071D                     	;# 
  1481     071E                     	;# 
  1482     0796                     	;# 
  1483     0797                     	;# 
  1484     0798                     	;# 
  1485     0799                     	;# 
  1486     079A                     	;# 
  1487     079B                     	;# 
  1488     080C                     	;# 
  1489     080D                     	;# 
  1490     080E                     	;# 
  1491     080F                     	;# 
  1492     0810                     	;# 
  1493     0811                     	;# 
  1494     0812                     	;# 
  1495     0813                     	;# 
  1496     0814                     	;# 
  1497     081A                     	;# 
  1498     081B                     	;# 
  1499     081C                     	;# 
  1500     081D                     	;# 
  1501     081E                     	;# 
  1502     081F                     	;# 
  1503     088C                     	;# 
  1504     088D                     	;# 
  1505     088E                     	;# 
  1506     088F                     	;# 
  1507     0890                     	;# 
  1508     0891                     	;# 
  1509     0892                     	;# 
  1510     0893                     	;# 
  1511     0895                     	;# 
  1512     0896                     	;# 
  1513     0897                     	;# 
  1514     0898                     	;# 
  1515     0899                     	;# 
  1516     089A                     	;# 
  1517     089B                     	;# 
  1518     090C                     	;# 
  1519     090E                     	;# 
  1520     090F                     	;# 
  1521     091F                     	;# 
  1522     098F                     	;# 
  1523     098F                     	;# 
  1524     0990                     	;# 
  1525     0991                     	;# 
  1526     0992                     	;# 
  1527     0993                     	;# 
  1528     0994                     	;# 
  1529     0995                     	;# 
  1530     0996                     	;# 
  1531     0997                     	;# 
  1532     1E0F                     	;# 
  1533     1E10                     	;# 
  1534     1E11                     	;# 
  1535     1E12                     	;# 
  1536     1E13                     	;# 
  1537     1E14                     	;# 
  1538     1E15                     	;# 
  1539     1E16                     	;# 
  1540     1E17                     	;# 
  1541     1E18                     	;# 
  1542     1E19                     	;# 
  1543     1E1A                     	;# 
  1544     1E1B                     	;# 
  1545     1E1C                     	;# 
  1546     1E1D                     	;# 
  1547     1E1E                     	;# 
  1548     1E1F                     	;# 
  1549     1E20                     	;# 
  1550     1E21                     	;# 
  1551     1E22                     	;# 
  1552     1E23                     	;# 
  1553     1E24                     	;# 
  1554     1E25                     	;# 
  1555     1E26                     	;# 
  1556     1E27                     	;# 
  1557     1E28                     	;# 
  1558     1E29                     	;# 
  1559     1E2A                     	;# 
  1560     1E2B                     	;# 
  1561     1E2C                     	;# 
  1562     1E2D                     	;# 
  1563     1E2E                     	;# 
  1564     1E2F                     	;# 
  1565     1E30                     	;# 
  1566     1E31                     	;# 
  1567     1E32                     	;# 
  1568     1E33                     	;# 
  1569     1E34                     	;# 
  1570     1E35                     	;# 
  1571     1E36                     	;# 
  1572     1E37                     	;# 
  1573     1E8F                     	;# 
  1574     1E90                     	;# 
  1575     1E91                     	;# 
  1576     1E92                     	;# 
  1577     1E93                     	;# 
  1578     1E94                     	;# 
  1579     1E95                     	;# 
  1580     1E96                     	;# 
  1581     1E97                     	;# 
  1582     1E9C                     	;# 
  1583     1E9D                     	;# 
  1584     1E9E                     	;# 
  1585     1EA1                     	;# 
  1586     1EA2                     	;# 
  1587     1EA3                     	;# 
  1588     1EA4                     	;# 
  1589     1EA5                     	;# 
  1590     1EA9                     	;# 
  1591     1EAA                     	;# 
  1592     1EAB                     	;# 
  1593     1EAC                     	;# 
  1594     1EB1                     	;# 
  1595     1EB2                     	;# 
  1596     1EB3                     	;# 
  1597     1EB8                     	;# 
  1598     1EB9                     	;# 
  1599     1EBA                     	;# 
  1600     1EBB                     	;# 
  1601     1EBC                     	;# 
  1602     1EBD                     	;# 
  1603     1EBE                     	;# 
  1604     1EC3                     	;# 
  1605     1EC5                     	;# 
  1606     1EC6                     	;# 
  1607     1EC7                     	;# 
  1608     1EC8                     	;# 
  1609     1EC9                     	;# 
  1610     1ECA                     	;# 
  1611     1ECB                     	;# 
  1612     1ECC                     	;# 
  1613     1F10                     	;# 
  1614     1F11                     	;# 
  1615     1F12                     	;# 
  1616     1F13                     	;# 
  1617     1F14                     	;# 
  1618     1F15                     	;# 
  1619     1F16                     	;# 
  1620     1F17                     	;# 
  1621     1F18                     	;# 
  1622     1F19                     	;# 
  1623     1F1A                     	;# 
  1624     1F1B                     	;# 
  1625     1F1C                     	;# 
  1626     1F1D                     	;# 
  1627     1F1E                     	;# 
  1628     1F1F                     	;# 
  1629     1F20                     	;# 
  1630     1F21                     	;# 
  1631     1F22                     	;# 
  1632     1F23                     	;# 
  1633     1F24                     	;# 
  1634     1F25                     	;# 
  1635     1F26                     	;# 
  1636     1F27                     	;# 
  1637     1F28                     	;# 
  1638     1F29                     	;# 
  1639     1F2A                     	;# 
  1640     1F2B                     	;# 
  1641     1F2C                     	;# 
  1642     1F2D                     	;# 
  1643     1F2E                     	;# 
  1644     1F2F                     	;# 
  1645     1F30                     	;# 
  1646     1F31                     	;# 
  1647     1F32                     	;# 
  1648     1F38                     	;# 
  1649     1F39                     	;# 
  1650     1F3A                     	;# 
  1651     1F3B                     	;# 
  1652     1F3C                     	;# 
  1653     1F3D                     	;# 
  1654     1F3E                     	;# 
  1655     1F3F                     	;# 
  1656     1F40                     	;# 
  1657     1F41                     	;# 
  1658     1F43                     	;# 
  1659     1F44                     	;# 
  1660     1F45                     	;# 
  1661     1F46                     	;# 
  1662     1F47                     	;# 
  1663     1F48                     	;# 
  1664     1F49                     	;# 
  1665     1F4A                     	;# 
  1666     1F4B                     	;# 
  1667     1F4C                     	;# 
  1668     1F4E                     	;# 
  1669     1F4F                     	;# 
  1670     1F50                     	;# 
  1671     1F51                     	;# 
  1672     1F52                     	;# 
  1673     1F53                     	;# 
  1674     1F54                     	;# 
  1675     1F55                     	;# 
  1676     1F56                     	;# 
  1677     1F57                     	;# 
  1678     1F59                     	;# 
  1679     1F5A                     	;# 
  1680     1F5B                     	;# 
  1681     1F5C                     	;# 
  1682     1F5D                     	;# 
  1683     1F61                     	;# 
  1684     1F62                     	;# 
  1685     1F64                     	;# 
  1686     1F65                     	;# 
  1687     1F66                     	;# 
  1688     1F67                     	;# 
  1689     1F68                     	;# 
  1690     1F69                     	;# 
  1691     1F6A                     	;# 
  1692     1F6B                     	;# 
  1693     1F6C                     	;# 
  1694     1F6D                     	;# 
  1695     1FE4                     	;# 
  1696     1FE5                     	;# 
  1697     1FE6                     	;# 
  1698     1FE7                     	;# 
  1699     1FE8                     	;# 
  1700     1FE9                     	;# 
  1701     1FEA                     	;# 
  1702     1FEB                     	;# 
  1703     1FED                     	;# 
  1704     1FEE                     	;# 
  1705     1FEF                     	;# 
  1706     0000                     	;# 
  1707     0001                     	;# 
  1708     0002                     	;# 
  1709     0003                     	;# 
  1710     0004                     	;# 
  1711     0005                     	;# 
  1712     0006                     	;# 
  1713     0007                     	;# 
  1714     0008                     	;# 
  1715     0009                     	;# 
  1716     000A                     	;# 
  1717     000B                     	;# 
  1718     000C                     	;# 
  1719     000D                     	;# 
  1720     000E                     	;# 
  1721     000F                     	;# 
  1722     0010                     	;# 
  1723     0011                     	;# 
  1724     0012                     	;# 
  1725     0013                     	;# 
  1726     0014                     	;# 
  1727     0015                     	;# 
  1728     0016                     	;# 
  1729     0017                     	;# 
  1730     0018                     	;# 
  1731     0019                     	;# 
  1732     001A                     	;# 
  1733     001C                     	;# 
  1734     001C                     	;# 
  1735     001D                     	;# 
  1736     001D                     	;# 
  1737     001E                     	;# 
  1738     001F                     	;# 
  1739     008C                     	;# 
  1740     008C                     	;# 
  1741     008D                     	;# 
  1742     008E                     	;# 
  1743     008E                     	;# 
  1744     008F                     	;# 
  1745     0090                     	;# 
  1746     0090                     	;# 
  1747     0091                     	;# 
  1748     0093                     	;# 
  1749     0094                     	;# 
  1750     0095                     	;# 
  1751     0096                     	;# 
  1752     0097                     	;# 
  1753     0098                     	;# 
  1754     0099                     	;# 
  1755     009A                     	;# 
  1756     009B                     	;# 
  1757     009C                     	;# 
  1758     009D                     	;# 
  1759     009E                     	;# 
  1760     010C                     	;# 
  1761     010D                     	;# 
  1762     010E                     	;# 
  1763     010E                     	;# 
  1764     010F                     	;# 
  1765     0110                     	;# 
  1766     0110                     	;# 
  1767     0111                     	;# 
  1768     0112                     	;# 
  1769     0112                     	;# 
  1770     0113                     	;# 
  1771     0114                     	;# 
  1772     0114                     	;# 
  1773     0115                     	;# 
  1774     0116                     	;# 
  1775     0116                     	;# 
  1776     0117                     	;# 
  1777     0119                     	;# 
  1778     0119                     	;# 
  1779     0119                     	;# 
  1780     011A                     	;# 
  1781     011A                     	;# 
  1782     011A                     	;# 
  1783     011B                     	;# 
  1784     011B                     	;# 
  1785     011B                     	;# 
  1786     011B                     	;# 
  1787     011B                     	;# 
  1788     011C                     	;# 
  1789     011C                     	;# 
  1790     011C                     	;# 
  1791     011D                     	;# 
  1792     011D                     	;# 
  1793     011D                     	;# 
  1794     011E                     	;# 
  1795     011E                     	;# 
  1796     011E                     	;# 
  1797     011F                     	;# 
  1798     011F                     	;# 
  1799     011F                     	;# 
  1800     011F                     	;# 
  1801     011F                     	;# 
  1802     018C                     	;# 
  1803     018D                     	;# 
  1804     018E                     	;# 
  1805     018F                     	;# 
  1806     0190                     	;# 
  1807     0191                     	;# 
  1808     0192                     	;# 
  1809     0196                     	;# 
  1810     0197                     	;# 
  1811     0198                     	;# 
  1812     0199                     	;# 
  1813     019A                     	;# 
  1814     019B                     	;# 
  1815     019C                     	;# 
  1816     020C                     	;# 
  1817     020C                     	;# 
  1818     020D                     	;# 
  1819     020E                     	;# 
  1820     020F                     	;# 
  1821     020F                     	;# 
  1822     0210                     	;# 
  1823     0210                     	;# 
  1824     0211                     	;# 
  1825     0211                     	;# 
  1826     0212                     	;# 
  1827     0212                     	;# 
  1828     0213                     	;# 
  1829     0214                     	;# 
  1830     0215                     	;# 
  1831     0215                     	;# 
  1832     0216                     	;# 
  1833     0216                     	;# 
  1834     0217                     	;# 
  1835     0217                     	;# 
  1836     0218                     	;# 
  1837     0218                     	;# 
  1838     0219                     	;# 
  1839     021A                     	;# 
  1840     021B                     	;# 
  1841     021B                     	;# 
  1842     021C                     	;# 
  1843     021C                     	;# 
  1844     021D                     	;# 
  1845     021D                     	;# 
  1846     021E                     	;# 
  1847     021F                     	;# 
  1848     028C                     	;# 
  1849     028C                     	;# 
  1850     028D                     	;# 
  1851     028D                     	;# 
  1852     028E                     	;# 
  1853     028F                     	;# 
  1854     0290                     	;# 
  1855     0290                     	;# 
  1856     0291                     	;# 
  1857     0292                     	;# 
  1858     0292                     	;# 
  1859     0293                     	;# 
  1860     0293                     	;# 
  1861     0294                     	;# 
  1862     0295                     	;# 
  1863     0296                     	;# 
  1864     0296                     	;# 
  1865     0297                     	;# 
  1866     0298                     	;# 
  1867     0298                     	;# 
  1868     0299                     	;# 
  1869     0299                     	;# 
  1870     029A                     	;# 
  1871     029B                     	;# 
  1872     029C                     	;# 
  1873     029C                     	;# 
  1874     029D                     	;# 
  1875     030C                     	;# 
  1876     030C                     	;# 
  1877     030D                     	;# 
  1878     030E                     	;# 
  1879     030F                     	;# 
  1880     0310                     	;# 
  1881     0310                     	;# 
  1882     0311                     	;# 
  1883     0312                     	;# 
  1884     0313                     	;# 
  1885     0314                     	;# 
  1886     0314                     	;# 
  1887     0315                     	;# 
  1888     0316                     	;# 
  1889     0317                     	;# 
  1890     0318                     	;# 
  1891     0318                     	;# 
  1892     0319                     	;# 
  1893     031A                     	;# 
  1894     031B                     	;# 
  1895     031C                     	;# 
  1896     031C                     	;# 
  1897     031D                     	;# 
  1898     031E                     	;# 
  1899     031F                     	;# 
  1900     038C                     	;# 
  1901     038C                     	;# 
  1902     038D                     	;# 
  1903     038E                     	;# 
  1904     0390                     	;# 
  1905     0390                     	;# 
  1906     0391                     	;# 
  1907     0392                     	;# 
  1908     040C                     	;# 
  1909     040D                     	;# 
  1910     040E                     	;# 
  1911     040F                     	;# 
  1912     0410                     	;# 
  1913     0411                     	;# 
  1914     0416                     	;# 
  1915     0416                     	;# 
  1916     0417                     	;# 
  1917     0418                     	;# 
  1918     0418                     	;# 
  1919     0419                     	;# 
  1920     041A                     	;# 
  1921     041A                     	;# 
  1922     041B                     	;# 
  1923     041C                     	;# 
  1924     041C                     	;# 
  1925     041D                     	;# 
  1926     041E                     	;# 
  1927     041F                     	;# 
  1928     048C                     	;# 
  1929     048C                     	;# 
  1930     048D                     	;# 
  1931     048E                     	;# 
  1932     048F                     	;# 
  1933     048F                     	;# 
  1934     0490                     	;# 
  1935     0491                     	;# 
  1936     0492                     	;# 
  1937     0492                     	;# 
  1938     0493                     	;# 
  1939     0494                     	;# 
  1940     0495                     	;# 
  1941     0495                     	;# 
  1942     0496                     	;# 
  1943     0497                     	;# 
  1944     0498                     	;# 
  1945     0499                     	;# 
  1946     049A                     	;# 
  1947     049B                     	;# 
  1948     049C                     	;# 
  1949     049D                     	;# 
  1950     050C                     	;# 
  1951     050C                     	;# 
  1952     050D                     	;# 
  1953     050E                     	;# 
  1954     050F                     	;# 
  1955     050F                     	;# 
  1956     0510                     	;# 
  1957     0511                     	;# 
  1958     0512                     	;# 
  1959     0512                     	;# 
  1960     0513                     	;# 
  1961     0514                     	;# 
  1962     0515                     	;# 
  1963     0515                     	;# 
  1964     0516                     	;# 
  1965     0517                     	;# 
  1966     0518                     	;# 
  1967     0519                     	;# 
  1968     051A                     	;# 
  1969     051B                     	;# 
  1970     051C                     	;# 
  1971     051D                     	;# 
  1972     058C                     	;# 
  1973     058C                     	;# 
  1974     058D                     	;# 
  1975     058E                     	;# 
  1976     058F                     	;# 
  1977     058F                     	;# 
  1978     0590                     	;# 
  1979     0591                     	;# 
  1980     0592                     	;# 
  1981     0593                     	;# 
  1982     060C                     	;# 
  1983     060D                     	;# 
  1984     060E                     	;# 
  1985     060F                     	;# 
  1986     0610                     	;# 
  1987     0611                     	;# 
  1988     0612                     	;# 
  1989     0613                     	;# 
  1990     0614                     	;# 
  1991     0616                     	;# 
  1992     0617                     	;# 
  1993     0618                     	;# 
  1994     0619                     	;# 
  1995     061A                     	;# 
  1996     061B                     	;# 
  1997     061C                     	;# 
  1998     061D                     	;# 
  1999     061E                     	;# 
  2000     068C                     	;# 
  2001     068D                     	;# 
  2002     068E                     	;# 
  2003     068F                     	;# 
  2004     0690                     	;# 
  2005     0691                     	;# 
  2006     0692                     	;# 
  2007     0693                     	;# 
  2008     0694                     	;# 
  2009     070C                     	;# 
  2010     070D                     	;# 
  2011     070E                     	;# 
  2012     070F                     	;# 
  2013     0710                     	;# 
  2014     0711                     	;# 
  2015     0712                     	;# 
  2016     0713                     	;# 
  2017     0714                     	;# 
  2018     0716                     	;# 
  2019     0717                     	;# 
  2020     0718                     	;# 
  2021     0719                     	;# 
  2022     071A                     	;# 
  2023     071B                     	;# 
  2024     071C                     	;# 
  2025     071D                     	;# 
  2026     071E                     	;# 
  2027     0796                     	;# 
  2028     0797                     	;# 
  2029     0798                     	;# 
  2030     0799                     	;# 
  2031     079A                     	;# 
  2032     079B                     	;# 
  2033     080C                     	;# 
  2034     080D                     	;# 
  2035     080E                     	;# 
  2036     080F                     	;# 
  2037     0810                     	;# 
  2038     0811                     	;# 
  2039     0812                     	;# 
  2040     0813                     	;# 
  2041     0814                     	;# 
  2042     081A                     	;# 
  2043     081B                     	;# 
  2044     081C                     	;# 
  2045     081D                     	;# 
  2046     081E                     	;# 
  2047     081F                     	;# 
  2048     088C                     	;# 
  2049     088D                     	;# 
  2050     088E                     	;# 
  2051     088F                     	;# 
  2052     0890                     	;# 
  2053     0891                     	;# 
  2054     0892                     	;# 
  2055     0893                     	;# 
  2056     0895                     	;# 
  2057     0896                     	;# 
  2058     0897                     	;# 
  2059     0898                     	;# 
  2060     0899                     	;# 
  2061     089A                     	;# 
  2062     089B                     	;# 
  2063     090C                     	;# 
  2064     090E                     	;# 
  2065     090F                     	;# 
  2066     091F                     	;# 
  2067     098F                     	;# 
  2068     098F                     	;# 
  2069     0990                     	;# 
  2070     0991                     	;# 
  2071     0992                     	;# 
  2072     0993                     	;# 
  2073     0994                     	;# 
  2074     0995                     	;# 
  2075     0996                     	;# 
  2076     0997                     	;# 
  2077     1E0F                     	;# 
  2078     1E10                     	;# 
  2079     1E11                     	;# 
  2080     1E12                     	;# 
  2081     1E13                     	;# 
  2082     1E14                     	;# 
  2083     1E15                     	;# 
  2084     1E16                     	;# 
  2085     1E17                     	;# 
  2086     1E18                     	;# 
  2087     1E19                     	;# 
  2088     1E1A                     	;# 
  2089     1E1B                     	;# 
  2090     1E1C                     	;# 
  2091     1E1D                     	;# 
  2092     1E1E                     	;# 
  2093     1E1F                     	;# 
  2094     1E20                     	;# 
  2095     1E21                     	;# 
  2096     1E22                     	;# 
  2097     1E23                     	;# 
  2098     1E24                     	;# 
  2099     1E25                     	;# 
  2100     1E26                     	;# 
  2101     1E27                     	;# 
  2102     1E28                     	;# 
  2103     1E29                     	;# 
  2104     1E2A                     	;# 
  2105     1E2B                     	;# 
  2106     1E2C                     	;# 
  2107     1E2D                     	;# 
  2108     1E2E                     	;# 
  2109     1E2F                     	;# 
  2110     1E30                     	;# 
  2111     1E31                     	;# 
  2112     1E32                     	;# 
  2113     1E33                     	;# 
  2114     1E34                     	;# 
  2115     1E35                     	;# 
  2116     1E36                     	;# 
  2117     1E37                     	;# 
  2118     1E8F                     	;# 
  2119     1E90                     	;# 
  2120     1E91                     	;# 
  2121     1E92                     	;# 
  2122     1E93                     	;# 
  2123     1E94                     	;# 
  2124     1E95                     	;# 
  2125     1E96                     	;# 
  2126     1E97                     	;# 
  2127     1E9C                     	;# 
  2128     1E9D                     	;# 
  2129     1E9E                     	;# 
  2130     1EA1                     	;# 
  2131     1EA2                     	;# 
  2132     1EA3                     	;# 
  2133     1EA4                     	;# 
  2134     1EA5                     	;# 
  2135     1EA9                     	;# 
  2136     1EAA                     	;# 
  2137     1EAB                     	;# 
  2138     1EAC                     	;# 
  2139     1EB1                     	;# 
  2140     1EB2                     	;# 
  2141     1EB3                     	;# 
  2142     1EB8                     	;# 
  2143     1EB9                     	;# 
  2144     1EBA                     	;# 
  2145     1EBB                     	;# 
  2146     1EBC                     	;# 
  2147     1EBD                     	;# 
  2148     1EBE                     	;# 
  2149     1EC3                     	;# 
  2150     1EC5                     	;# 
  2151     1EC6                     	;# 
  2152     1EC7                     	;# 
  2153     1EC8                     	;# 
  2154     1EC9                     	;# 
  2155     1ECA                     	;# 
  2156     1ECB                     	;# 
  2157     1ECC                     	;# 
  2158     1F10                     	;# 
  2159     1F11                     	;# 
  2160     1F12                     	;# 
  2161     1F13                     	;# 
  2162     1F14                     	;# 
  2163     1F15                     	;# 
  2164     1F16                     	;# 
  2165     1F17                     	;# 
  2166     1F18                     	;# 
  2167     1F19                     	;# 
  2168     1F1A                     	;# 
  2169     1F1B                     	;# 
  2170     1F1C                     	;# 
  2171     1F1D                     	;# 
  2172     1F1E                     	;# 
  2173     1F1F                     	;# 
  2174     1F20                     	;# 
  2175     1F21                     	;# 
  2176     1F22                     	;# 
  2177     1F23                     	;# 
  2178     1F24                     	;# 
  2179     1F25                     	;# 
  2180     1F26                     	;# 
  2181     1F27                     	;# 
  2182     1F28                     	;# 
  2183     1F29                     	;# 
  2184     1F2A                     	;# 
  2185     1F2B                     	;# 
  2186     1F2C                     	;# 
  2187     1F2D                     	;# 
  2188     1F2E                     	;# 
  2189     1F2F                     	;# 
  2190     1F30                     	;# 
  2191     1F31                     	;# 
  2192     1F32                     	;# 
  2193     1F38                     	;# 
  2194     1F39                     	;# 
  2195     1F3A                     	;# 
  2196     1F3B                     	;# 
  2197     1F3C                     	;# 
  2198     1F3D                     	;# 
  2199     1F3E                     	;# 
  2200     1F3F                     	;# 
  2201     1F40                     	;# 
  2202     1F41                     	;# 
  2203     1F43                     	;# 
  2204     1F44                     	;# 
  2205     1F45                     	;# 
  2206     1F46                     	;# 
  2207     1F47                     	;# 
  2208     1F48                     	;# 
  2209     1F49                     	;# 
  2210     1F4A                     	;# 
  2211     1F4B                     	;# 
  2212     1F4C                     	;# 
  2213     1F4E                     	;# 
  2214     1F4F                     	;# 
  2215     1F50                     	;# 
  2216     1F51                     	;# 
  2217     1F52                     	;# 
  2218     1F53                     	;# 
  2219     1F54                     	;# 
  2220     1F55                     	;# 
  2221     1F56                     	;# 
  2222     1F57                     	;# 
  2223     1F59                     	;# 
  2224     1F5A                     	;# 
  2225     1F5B                     	;# 
  2226     1F5C                     	;# 
  2227     1F5D                     	;# 
  2228     1F61                     	;# 
  2229     1F62                     	;# 
  2230     1F64                     	;# 
  2231     1F65                     	;# 
  2232     1F66                     	;# 
  2233     1F67                     	;# 
  2234     1F68                     	;# 
  2235     1F69                     	;# 
  2236     1F6A                     	;# 
  2237     1F6B                     	;# 
  2238     1F6C                     	;# 
  2239     1F6D                     	;# 
  2240     1FE4                     	;# 
  2241     1FE5                     	;# 
  2242     1FE6                     	;# 
  2243     1FE7                     	;# 
  2244     1FE8                     	;# 
  2245     1FE9                     	;# 
  2246     1FEA                     	;# 
  2247     1FEB                     	;# 
  2248     1FED                     	;# 
  2249     1FEE                     	;# 
  2250     1FEF                     	;# 
  2251     0000                     	;# 
  2252     0001                     	;# 
  2253     0002                     	;# 
  2254     0003                     	;# 
  2255     0004                     	;# 
  2256     0005                     	;# 
  2257     0006                     	;# 
  2258     0007                     	;# 
  2259     0008                     	;# 
  2260     0009                     	;# 
  2261     000A                     	;# 
  2262     000B                     	;# 
  2263     000C                     	;# 
  2264     000D                     	;# 
  2265     000E                     	;# 
  2266     000F                     	;# 
  2267     0010                     	;# 
  2268     0011                     	;# 
  2269     0012                     	;# 
  2270     0013                     	;# 
  2271     0014                     	;# 
  2272     0015                     	;# 
  2273     0016                     	;# 
  2274     0017                     	;# 
  2275     0018                     	;# 
  2276     0019                     	;# 
  2277     001A                     	;# 
  2278     001C                     	;# 
  2279     001C                     	;# 
  2280     001D                     	;# 
  2281     001D                     	;# 
  2282     001E                     	;# 
  2283     001F                     	;# 
  2284     008C                     	;# 
  2285     008C                     	;# 
  2286     008D                     	;# 
  2287     008E                     	;# 
  2288     008E                     	;# 
  2289     008F                     	;# 
  2290     0090                     	;# 
  2291     0090                     	;# 
  2292     0091                     	;# 
  2293     0093                     	;# 
  2294     0094                     	;# 
  2295     0095                     	;# 
  2296     0096                     	;# 
  2297     0097                     	;# 
  2298     0098                     	;# 
  2299     0099                     	;# 
  2300     009A                     	;# 
  2301     009B                     	;# 
  2302     009C                     	;# 
  2303     009D                     	;# 
  2304     009E                     	;# 
  2305     010C                     	;# 
  2306     010D                     	;# 
  2307     010E                     	;# 
  2308     010E                     	;# 
  2309     010F                     	;# 
  2310     0110                     	;# 
  2311     0110                     	;# 
  2312     0111                     	;# 
  2313     0112                     	;# 
  2314     0112                     	;# 
  2315     0113                     	;# 
  2316     0114                     	;# 
  2317     0114                     	;# 
  2318     0115                     	;# 
  2319     0116                     	;# 
  2320     0116                     	;# 
  2321     0117                     	;# 
  2322     0119                     	;# 
  2323     0119                     	;# 
  2324     0119                     	;# 
  2325     011A                     	;# 
  2326     011A                     	;# 
  2327     011A                     	;# 
  2328     011B                     	;# 
  2329     011B                     	;# 
  2330     011B                     	;# 
  2331     011B                     	;# 
  2332     011B                     	;# 
  2333     011C                     	;# 
  2334     011C                     	;# 
  2335     011C                     	;# 
  2336     011D                     	;# 
  2337     011D                     	;# 
  2338     011D                     	;# 
  2339     011E                     	;# 
  2340     011E                     	;# 
  2341     011E                     	;# 
  2342     011F                     	;# 
  2343     011F                     	;# 
  2344     011F                     	;# 
  2345     011F                     	;# 
  2346     011F                     	;# 
  2347     018C                     	;# 
  2348     018D                     	;# 
  2349     018E                     	;# 
  2350     018F                     	;# 
  2351     0190                     	;# 
  2352     0191                     	;# 
  2353     0192                     	;# 
  2354     0196                     	;# 
  2355     0197                     	;# 
  2356     0198                     	;# 
  2357     0199                     	;# 
  2358     019A                     	;# 
  2359     019B                     	;# 
  2360     019C                     	;# 
  2361     020C                     	;# 
  2362     020C                     	;# 
  2363     020D                     	;# 
  2364     020E                     	;# 
  2365     020F                     	;# 
  2366     020F                     	;# 
  2367     0210                     	;# 
  2368     0210                     	;# 
  2369     0211                     	;# 
  2370     0211                     	;# 
  2371     0212                     	;# 
  2372     0212                     	;# 
  2373     0213                     	;# 
  2374     0214                     	;# 
  2375     0215                     	;# 
  2376     0215                     	;# 
  2377     0216                     	;# 
  2378     0216                     	;# 
  2379     0217                     	;# 
  2380     0217                     	;# 
  2381     0218                     	;# 
  2382     0218                     	;# 
  2383     0219                     	;# 
  2384     021A                     	;# 
  2385     021B                     	;# 
  2386     021B                     	;# 
  2387     021C                     	;# 
  2388     021C                     	;# 
  2389     021D                     	;# 
  2390     021D                     	;# 
  2391     021E                     	;# 
  2392     021F                     	;# 
  2393     028C                     	;# 
  2394     028C                     	;# 
  2395     028D                     	;# 
  2396     028D                     	;# 
  2397     028E                     	;# 
  2398     028F                     	;# 
  2399     0290                     	;# 
  2400     0290                     	;# 
  2401     0291                     	;# 
  2402     0292                     	;# 
  2403     0292                     	;# 
  2404     0293                     	;# 
  2405     0293                     	;# 
  2406     0294                     	;# 
  2407     0295                     	;# 
  2408     0296                     	;# 
  2409     0296                     	;# 
  2410     0297                     	;# 
  2411     0298                     	;# 
  2412     0298                     	;# 
  2413     0299                     	;# 
  2414     0299                     	;# 
  2415     029A                     	;# 
  2416     029B                     	;# 
  2417     029C                     	;# 
  2418     029C                     	;# 
  2419     029D                     	;# 
  2420     030C                     	;# 
  2421     030C                     	;# 
  2422     030D                     	;# 
  2423     030E                     	;# 
  2424     030F                     	;# 
  2425     0310                     	;# 
  2426     0310                     	;# 
  2427     0311                     	;# 
  2428     0312                     	;# 
  2429     0313                     	;# 
  2430     0314                     	;# 
  2431     0314                     	;# 
  2432     0315                     	;# 
  2433     0316                     	;# 
  2434     0317                     	;# 
  2435     0318                     	;# 
  2436     0318                     	;# 
  2437     0319                     	;# 
  2438     031A                     	;# 
  2439     031B                     	;# 
  2440     031C                     	;# 
  2441     031C                     	;# 
  2442     031D                     	;# 
  2443     031E                     	;# 
  2444     031F                     	;# 
  2445     038C                     	;# 
  2446     038C                     	;# 
  2447     038D                     	;# 
  2448     038E                     	;# 
  2449     0390                     	;# 
  2450     0390                     	;# 
  2451     0391                     	;# 
  2452     0392                     	;# 
  2453     040C                     	;# 
  2454     040D                     	;# 
  2455     040E                     	;# 
  2456     040F                     	;# 
  2457     0410                     	;# 
  2458     0411                     	;# 
  2459     0416                     	;# 
  2460     0416                     	;# 
  2461     0417                     	;# 
  2462     0418                     	;# 
  2463     0418                     	;# 
  2464     0419                     	;# 
  2465     041A                     	;# 
  2466     041A                     	;# 
  2467     041B                     	;# 
  2468     041C                     	;# 
  2469     041C                     	;# 
  2470     041D                     	;# 
  2471     041E                     	;# 
  2472     041F                     	;# 
  2473     048C                     	;# 
  2474     048C                     	;# 
  2475     048D                     	;# 
  2476     048E                     	;# 
  2477     048F                     	;# 
  2478     048F                     	;# 
  2479     0490                     	;# 
  2480     0491                     	;# 
  2481     0492                     	;# 
  2482     0492                     	;# 
  2483     0493                     	;# 
  2484     0494                     	;# 
  2485     0495                     	;# 
  2486     0495                     	;# 
  2487     0496                     	;# 
  2488     0497                     	;# 
  2489     0498                     	;# 
  2490     0499                     	;# 
  2491     049A                     	;# 
  2492     049B                     	;# 
  2493     049C                     	;# 
  2494     049D                     	;# 
  2495     050C                     	;# 
  2496     050C                     	;# 
  2497     050D                     	;# 
  2498     050E                     	;# 
  2499     050F                     	;# 
  2500     050F                     	;# 
  2501     0510                     	;# 
  2502     0511                     	;# 
  2503     0512                     	;# 
  2504     0512                     	;# 
  2505     0513                     	;# 
  2506     0514                     	;# 
  2507     0515                     	;# 
  2508     0515                     	;# 
  2509     0516                     	;# 
  2510     0517                     	;# 
  2511     0518                     	;# 
  2512     0519                     	;# 
  2513     051A                     	;# 
  2514     051B                     	;# 
  2515     051C                     	;# 
  2516     051D                     	;# 
  2517     058C                     	;# 
  2518     058C                     	;# 
  2519     058D                     	;# 
  2520     058E                     	;# 
  2521     058F                     	;# 
  2522     058F                     	;# 
  2523     0590                     	;# 
  2524     0591                     	;# 
  2525     0592                     	;# 
  2526     0593                     	;# 
  2527     060C                     	;# 
  2528     060D                     	;# 
  2529     060E                     	;# 
  2530     060F                     	;# 
  2531     0610                     	;# 
  2532     0611                     	;# 
  2533     0612                     	;# 
  2534     0613                     	;# 
  2535     0614                     	;# 
  2536     0616                     	;# 
  2537     0617                     	;# 
  2538     0618                     	;# 
  2539     0619                     	;# 
  2540     061A                     	;# 
  2541     061B                     	;# 
  2542     061C                     	;# 
  2543     061D                     	;# 
  2544     061E                     	;# 
  2545     068C                     	;# 
  2546     068D                     	;# 
  2547     068E                     	;# 
  2548     068F                     	;# 
  2549     0690                     	;# 
  2550     0691                     	;# 
  2551     0692                     	;# 
  2552     0693                     	;# 
  2553     0694                     	;# 
  2554     070C                     	;# 
  2555     070D                     	;# 
  2556     070E                     	;# 
  2557     070F                     	;# 
  2558     0710                     	;# 
  2559     0711                     	;# 
  2560     0712                     	;# 
  2561     0713                     	;# 
  2562     0714                     	;# 
  2563     0716                     	;# 
  2564     0717                     	;# 
  2565     0718                     	;# 
  2566     0719                     	;# 
  2567     071A                     	;# 
  2568     071B                     	;# 
  2569     071C                     	;# 
  2570     071D                     	;# 
  2571     071E                     	;# 
  2572     0796                     	;# 
  2573     0797                     	;# 
  2574     0798                     	;# 
  2575     0799                     	;# 
  2576     079A                     	;# 
  2577     079B                     	;# 
  2578     080C                     	;# 
  2579     080D                     	;# 
  2580     080E                     	;# 
  2581     080F                     	;# 
  2582     0810                     	;# 
  2583     0811                     	;# 
  2584     0812                     	;# 
  2585     0813                     	;# 
  2586     0814                     	;# 
  2587     081A                     	;# 
  2588     081B                     	;# 
  2589     081C                     	;# 
  2590     081D                     	;# 
  2591     081E                     	;# 
  2592     081F                     	;# 
  2593     088C                     	;# 
  2594     088D                     	;# 
  2595     088E                     	;# 
  2596     088F                     	;# 
  2597     0890                     	;# 
  2598     0891                     	;# 
  2599     0892                     	;# 
  2600     0893                     	;# 
  2601     0895                     	;# 
  2602     0896                     	;# 
  2603     0897                     	;# 
  2604     0898                     	;# 
  2605     0899                     	;# 
  2606     089A                     	;# 
  2607     089B                     	;# 
  2608     090C                     	;# 
  2609     090E                     	;# 
  2610     090F                     	;# 
  2611     091F                     	;# 
  2612     098F                     	;# 
  2613     098F                     	;# 
  2614     0990                     	;# 
  2615     0991                     	;# 
  2616     0992                     	;# 
  2617     0993                     	;# 
  2618     0994                     	;# 
  2619     0995                     	;# 
  2620     0996                     	;# 
  2621     0997                     	;# 
  2622     1E0F                     	;# 
  2623     1E10                     	;# 
  2624     1E11                     	;# 
  2625     1E12                     	;# 
  2626     1E13                     	;# 
  2627     1E14                     	;# 
  2628     1E15                     	;# 
  2629     1E16                     	;# 
  2630     1E17                     	;# 
  2631     1E18                     	;# 
  2632     1E19                     	;# 
  2633     1E1A                     	;# 
  2634     1E1B                     	;# 
  2635     1E1C                     	;# 
  2636     1E1D                     	;# 
  2637     1E1E                     	;# 
  2638     1E1F                     	;# 
  2639     1E20                     	;# 
  2640     1E21                     	;# 
  2641     1E22                     	;# 
  2642     1E23                     	;# 
  2643     1E24                     	;# 
  2644     1E25                     	;# 
  2645     1E26                     	;# 
  2646     1E27                     	;# 
  2647     1E28                     	;# 
  2648     1E29                     	;# 
  2649     1E2A                     	;# 
  2650     1E2B                     	;# 
  2651     1E2C                     	;# 
  2652     1E2D                     	;# 
  2653     1E2E                     	;# 
  2654     1E2F                     	;# 
  2655     1E30                     	;# 
  2656     1E31                     	;# 
  2657     1E32                     	;# 
  2658     1E33                     	;# 
  2659     1E34                     	;# 
  2660     1E35                     	;# 
  2661     1E36                     	;# 
  2662     1E37                     	;# 
  2663     1E8F                     	;# 
  2664     1E90                     	;# 
  2665     1E91                     	;# 
  2666     1E92                     	;# 
  2667     1E93                     	;# 
  2668     1E94                     	;# 
  2669     1E95                     	;# 
  2670     1E96                     	;# 
  2671     1E97                     	;# 
  2672     1E9C                     	;# 
  2673     1E9D                     	;# 
  2674     1E9E                     	;# 
  2675     1EA1                     	;# 
  2676     1EA2                     	;# 
  2677     1EA3                     	;# 
  2678     1EA4                     	;# 
  2679     1EA5                     	;# 
  2680     1EA9                     	;# 
  2681     1EAA                     	;# 
  2682     1EAB                     	;# 
  2683     1EAC                     	;# 
  2684     1EB1                     	;# 
  2685     1EB2                     	;# 
  2686     1EB3                     	;# 
  2687     1EB8                     	;# 
  2688     1EB9                     	;# 
  2689     1EBA                     	;# 
  2690     1EBB                     	;# 
  2691     1EBC                     	;# 
  2692     1EBD                     	;# 
  2693     1EBE                     	;# 
  2694     1EC3                     	;# 
  2695     1EC5                     	;# 
  2696     1EC6                     	;# 
  2697     1EC7                     	;# 
  2698     1EC8                     	;# 
  2699     1EC9                     	;# 
  2700     1ECA                     	;# 
  2701     1ECB                     	;# 
  2702     1ECC                     	;# 
  2703     1F10                     	;# 
  2704     1F11                     	;# 
  2705     1F12                     	;# 
  2706     1F13                     	;# 
  2707     1F14                     	;# 
  2708     1F15                     	;# 
  2709     1F16                     	;# 
  2710     1F17                     	;# 
  2711     1F18                     	;# 
  2712     1F19                     	;# 
  2713     1F1A                     	;# 
  2714     1F1B                     	;# 
  2715     1F1C                     	;# 
  2716     1F1D                     	;# 
  2717     1F1E                     	;# 
  2718     1F1F                     	;# 
  2719     1F20                     	;# 
  2720     1F21                     	;# 
  2721     1F22                     	;# 
  2722     1F23                     	;# 
  2723     1F24                     	;# 
  2724     1F25                     	;# 
  2725     1F26                     	;# 
  2726     1F27                     	;# 
  2727     1F28                     	;# 
  2728     1F29                     	;# 
  2729     1F2A                     	;# 
  2730     1F2B                     	;# 
  2731     1F2C                     	;# 
  2732     1F2D                     	;# 
  2733     1F2E                     	;# 
  2734     1F2F                     	;# 
  2735     1F30                     	;# 
  2736     1F31                     	;# 
  2737     1F32                     	;# 
  2738     1F38                     	;# 
  2739     1F39                     	;# 
  2740     1F3A                     	;# 
  2741     1F3B                     	;# 
  2742     1F3C                     	;# 
  2743     1F3D                     	;# 
  2744     1F3E                     	;# 
  2745     1F3F                     	;# 
  2746     1F40                     	;# 
  2747     1F41                     	;# 
  2748     1F43                     	;# 
  2749     1F44                     	;# 
  2750     1F45                     	;# 
  2751     1F46                     	;# 
  2752     1F47                     	;# 
  2753     1F48                     	;# 
  2754     1F49                     	;# 
  2755     1F4A                     	;# 
  2756     1F4B                     	;# 
  2757     1F4C                     	;# 
  2758     1F4E                     	;# 
  2759     1F4F                     	;# 
  2760     1F50                     	;# 
  2761     1F51                     	;# 
  2762     1F52                     	;# 
  2763     1F53                     	;# 
  2764     1F54                     	;# 
  2765     1F55                     	;# 
  2766     1F56                     	;# 
  2767     1F57                     	;# 
  2768     1F59                     	;# 
  2769     1F5A                     	;# 
  2770     1F5B                     	;# 
  2771     1F5C                     	;# 
  2772     1F5D                     	;# 
  2773     1F61                     	;# 
  2774     1F62                     	;# 
  2775     1F64                     	;# 
  2776     1F65                     	;# 
  2777     1F66                     	;# 
  2778     1F67                     	;# 
  2779     1F68                     	;# 
  2780     1F69                     	;# 
  2781     1F6A                     	;# 
  2782     1F6B                     	;# 
  2783     1F6C                     	;# 
  2784     1F6D                     	;# 
  2785     1FE4                     	;# 
  2786     1FE5                     	;# 
  2787     1FE6                     	;# 
  2788     1FE7                     	;# 
  2789     1FE8                     	;# 
  2790     1FE9                     	;# 
  2791     1FEA                     	;# 
  2792     1FEB                     	;# 
  2793     1FED                     	;# 
  2794     1FEE                     	;# 
  2795     1FEF                     	;# 
  2796                           
  2797                           	psect	idataBANK1
  2798     037E                     __pidataBANK1:
  2799                           
  2800                           ;initializer for main@F12177
  2801     037E  3420               	retlw	32
  2802     037F  3420               	retlw	32
  2803     0380  3420               	retlw	32
  2804     0381  3420               	retlw	32
  2805     0382  3420               	retlw	32
  2806     0383  3420               	retlw	32
  2807     0384  3420               	retlw	32
  2808     0385  3420               	retlw	32
  2809     0386  3420               	retlw	32
  2810     0387  3420               	retlw	32
  2811     0388  3420               	retlw	32
  2812     0389  3425               	retlw	37
  2813     038A  3400               	retlw	0
  2814                           
  2815                           ;initializer for main@F12175
  2816     038B  3457               	retlw	87
  2817     038C  3461               	retlw	97
  2818     038D  3474               	retlw	116
  2819     038E  3465               	retlw	101
  2820     038F  3472               	retlw	114
  2821     0390  3420               	retlw	32
  2822     0391  344C               	retlw	76
  2823     0392  3465               	retlw	101
  2824     0393  3476               	retlw	118
  2825     0394  3465               	retlw	101
  2826     0395  346C               	retlw	108
  2827     0396  343A               	retlw	58
  2828     0397  3400               	retlw	0
  2829                           
  2830                           ;initializer for main@F12170
  2831     0398  3454               	retlw	84
  2832     0399  3465               	retlw	101
  2833     039A  346D               	retlw	109
  2834     039B  3470               	retlw	112
  2835     039C  3465               	retlw	101
  2836     039D  3472               	retlw	114
  2837     039E  3461               	retlw	97
  2838     039F  3474               	retlw	116
  2839     03A0  3475               	retlw	117
  2840     03A1  3472               	retlw	114
  2841     03A2  3465               	retlw	101
  2842     03A3  343A               	retlw	58
  2843     03A4  3400               	retlw	0
  2844                           
  2845                           	psect	idataBANK2
  2846     03A5                     __pidataBANK2:
  2847                           
  2848                           ;initializer for main@F12167
  2849     03A5  3453               	retlw	83
  2850     03A6  3433               	retlw	51
  2851     03A7  3420               	retlw	32
  2852     03A8  3466               	retlw	102
  2853     03A9  346F               	retlw	111
  2854     03AA  3472               	retlw	114
  2855     03AB  3420               	retlw	32
  2856     03AC  3457               	retlw	87
  2857     03AD  3461               	retlw	97
  2858     03AE  3474               	retlw	116
  2859     03AF  3465               	retlw	101
  2860     03B0  3472               	retlw	114
  2861     03B1  3420               	retlw	32
  2862     03B2  344C               	retlw	76
  2863     03B3  3476               	retlw	118
  2864     03B4  346C               	retlw	108
  2865     03B5  3400               	retlw	0
  2866                           
  2867                           ;initializer for main@F12165
  2868     03B6  3450               	retlw	80
  2869     03B7  3472               	retlw	114
  2870     03B8  3465               	retlw	101
  2871     03B9  3473               	retlw	115
  2872     03BA  3473               	retlw	115
  2873     03BB  3453               	retlw	83
  2874     03BC  3432               	retlw	50
  2875     03BD  3420               	retlw	32
  2876     03BE  3466               	retlw	102
  2877     03BF  346F               	retlw	111
  2878     03C0  3472               	retlw	114
  2879     03C1  3420               	retlw	32
  2880     03C2  3454               	retlw	84
  2881     03C3  3465               	retlw	101
  2882     03C4  346D               	retlw	109
  2883     03C5  3470               	retlw	112
  2884     03C6  3400               	retlw	0
  2885                           
  2886                           ;initializer for main@F12172
  2887     03C7  3420               	retlw	32
  2888     03C8  3420               	retlw	32
  2889     03C9  3420               	retlw	32
  2890     03CA  3420               	retlw	32
  2891     03CB  3420               	retlw	32
  2892     03CC  3420               	retlw	32
  2893     03CD  3420               	retlw	32
  2894     03CE  3420               	retlw	32
  2895     03CF  3420               	retlw	32
  2896     03D0  3420               	retlw	32
  2897     03D1  3420               	retlw	32
  2898     03D2  34BA               	retlw	186
  2899     03D3  3443               	retlw	67
  2900     03D4  3400               	retlw	0
  2901     000F                     _PORTDbits	set	15
  2902     0010                     _PORTEbits	set	16
  2903     0015                     _TRISE	set	21
  2904     0014                     _TRISD	set	20
  2905     0013                     _TRISC	set	19
  2906     0012                     _TRISB	set	18
  2907     0011                     _TRISA	set	17
  2908     000C                     _PORTA	set	12
  2909     000D                     _PORTBbits	set	13
  2910     008C                     _ADRESL	set	140
  2911     008D                     _ADRESH	set	141
  2912     0093                     _ADCON0bits	set	147
  2913     009E                     _ADPCH	set	158
  2914     0093                     _ADCON0	set	147
  2915     009D                     _ADACQ	set	157
  2916     0098                     _ADCLK	set	152
  2917     009A                     _ADREF	set	154
  2918     1F64                     _ANSELE	set	8036
  2919     1F59                     _ANSELD	set	8025
  2920     1F4E                     _ANSELC	set	8014
  2921     1F43                     _ANSELB	set	8003
  2922     1F38                     _ANSELA	set	7992
  2923                           
  2924                           	psect	cinit
  2925     07E5                     start_initialization:	
  2926                           ; #config settings
  2927                           
  2928     07E5                     __initialization:
  2929                           
  2930                           ; Initialize objects allocated to BANK1
  2931     07E5  307E               	movlw	low __pidataBANK1
  2932     07E6  0084               	movwf	4
  2933     07E7  3083               	movlw	(high __pidataBANK1)| (0+128)
  2934     07E8  0085               	movwf	5
  2935     07E9  30A0               	movlw	low __pdataBANK1
  2936     07EA  0086               	movwf	6
  2937     07EB  3000               	movlw	high __pdataBANK1
  2938     07EC  0087               	movwf	7
  2939     07ED  3027               	movlw	39
  2940     07EE  3182  2291  3187   	fcall	init_ram
  2941                           
  2942                           ; Initialize objects allocated to BANK2
  2943     07F1  30A5               	movlw	low __pidataBANK2
  2944     07F2  0084               	movwf	4
  2945     07F3  3083               	movlw	(high __pidataBANK2)| (0+128)
  2946     07F4  0085               	movwf	5
  2947     07F5  3020               	movlw	low __pdataBANK2
  2948     07F6  0086               	movwf	6
  2949     07F7  3001               	movlw	high __pdataBANK2
  2950     07F8  0087               	movwf	7
  2951     07F9  3030               	movlw	48
  2952     07FA  3182  2291  3187   	fcall	init_ram
  2953     07FD                     end_of_initialization:	
  2954                           ;End of C runtime variable initialization code
  2955                           
  2956     07FD                     __end_of__initialization:
  2957     07FD  0140               	movlb	0
  2958     07FE  3186  2EA5         	ljmp	_main	;jump to C main() function
  2959                           
  2960                           	psect	dataBANK1
  2961     00A0                     __pdataBANK1:
  2962     00A0                     main@F12177:
  2963     00A0                     	ds	13
  2964     00AD                     main@F12175:
  2965     00AD                     	ds	13
  2966     00BA                     main@F12170:
  2967     00BA                     	ds	13
  2968                           
  2969                           	psect	dataBANK2
  2970     0120                     __pdataBANK2:
  2971     0120                     main@F12167:
  2972     0120                     	ds	17
  2973     0131                     main@F12165:
  2974     0131                     	ds	17
  2975     0142                     main@F12172:
  2976     0142                     	ds	14
  2977                           
  2978                           	psect	inittext
  2979     0291                     init_ram:
  2980     0291  00FE               	movwf	btemp
  2981     0292                     initloop:
  2982     0292  0012               	moviw fsr0++
  2983     0293  001E               	movwi fsr1++
  2984     0294  0BFE               	decfsz	btemp,f
  2985     0295  2A92               	goto	initloop
  2986     0296  3400               	retlw	0
  2987                           
  2988                           	psect	cstackBANK1
  2989     00C7                     __pcstackBANK1:
  2990     00C7                     main@message5:
  2991                           
  2992                           ; 13 bytes @ 0x0
  2993     00C7                     	ds	13
  2994     00D4                     main@message6:
  2995                           
  2996                           ; 13 bytes @ 0xD
  2997     00D4                     	ds	13
  2998     00E1                     main@i_183:
  2999                           
  3000                           ; 2 bytes @ 0x1A
  3001     00E1                     	ds	2
  3002     00E3                     main@i_188:
  3003                           
  3004                           ; 2 bytes @ 0x1C
  3005     00E3                     	ds	2
  3006                           
  3007                           	psect	cstackCOMMON
  3008     0070                     __pcstackCOMMON:
  3009     0070                     ?_initSysPins:
  3010     0070                     ??_initSysPins:	
  3011                           ; 1 bytes @ 0x0
  3012                           
  3013     0070                     ?_initLCD:	
  3014                           ; 1 bytes @ 0x0
  3015                           
  3016     0070                     ?_lcdWriteDspData:	
  3017                           ; 1 bytes @ 0x0
  3018                           
  3019     0070                     ?_dspTaskT_OnLCD:	
  3020                           ; 1 bytes @ 0x0
  3021                           
  3022     0070                     ?_dspTaskW_OnLCD:	
  3023                           ; 1 bytes @ 0x0
  3024                           
  3025     0070                     ?_lcdWriteCtrlWord:	
  3026                           ; 1 bytes @ 0x0
  3027                           
  3028     0070                     ?_lcdCtrl_FunctionSet:	
  3029                           ; 1 bytes @ 0x0
  3030                           
  3031     0070                     ?_lcdCtrl_SetEntryMode:	
  3032                           ; 1 bytes @ 0x0
  3033                           
  3034     0070                     ?_lcdCtrl_ClearDisplay:	
  3035                           ; 1 bytes @ 0x0
  3036                           
  3037     0070                     ?_lcdWriteNibble:	
  3038                           ; 1 bytes @ 0x0
  3039                           
  3040     0070                     ??_lcdWriteNibble:	
  3041                           ; 1 bytes @ 0x0
  3042                           
  3043     0070                     ?_initADC:	
  3044                           ; 1 bytes @ 0x0
  3045                           
  3046     0070                     ??_initADC:	
  3047                           ; 1 bytes @ 0x0
  3048                           
  3049     0070                     ?_main:	
  3050                           ; 1 bytes @ 0x0
  3051                           
  3052     0070                     ?_adc_GetTConversion:	
  3053                           ; 1 bytes @ 0x0
  3054                           
  3055     0070                     ?_adc_GetWConversion:	
  3056                           ; 2 bytes @ 0x0
  3057                           
  3058     0070                     ?___wmul:	
  3059                           ; 2 bytes @ 0x0
  3060                           
  3061     0070                     ?___awdiv:	
  3062                           ; 2 bytes @ 0x0
  3063                           
  3064     0070                     ___wmul@multiplier:	
  3065                           ; 2 bytes @ 0x0
  3066                           
  3067     0070                     ___awdiv@divisor:	
  3068                           ; 2 bytes @ 0x0
  3069                           
  3070                           
  3071                           ; 2 bytes @ 0x0
  3072     0070                     	ds	2
  3073     0072                     ??_adc_GetTConversion:
  3074     0072                     ??_adc_GetWConversion:	
  3075                           ; 1 bytes @ 0x2
  3076                           
  3077     0072                     lcdWriteNibble@nibble:	
  3078                           ; 1 bytes @ 0x2
  3079                           
  3080     0072                     adc_GetTConversion@result:	
  3081                           ; 1 bytes @ 0x2
  3082                           
  3083     0072                     adc_GetWConversion@result:	
  3084                           ; 2 bytes @ 0x2
  3085                           
  3086     0072                     ___wmul@multiplicand:	
  3087                           ; 2 bytes @ 0x2
  3088                           
  3089     0072                     ___awdiv@dividend:	
  3090                           ; 2 bytes @ 0x2
  3091                           
  3092                           
  3093                           ; 2 bytes @ 0x2
  3094     0072                     	ds	1
  3095     0073                     ??_lcdWriteDspData:
  3096     0073                     ??_lcdWriteCtrlWord:	
  3097                           ; 1 bytes @ 0x3
  3098                           
  3099                           
  3100                           ; 1 bytes @ 0x3
  3101     0073                     	ds	1
  3102     0074                     ??___wmul:
  3103     0074                     ??___awdiv:	
  3104                           ; 1 bytes @ 0x4
  3105                           
  3106     0074                     lcdWriteCtrlWord@upper_nibble:	
  3107                           ; 1 bytes @ 0x4
  3108                           
  3109     0074                     lcdWriteDspData@upper_nibble:	
  3110                           ; 1 bytes @ 0x4
  3111                           
  3112     0074                     ___wmul@product:	
  3113                           ; 1 bytes @ 0x4
  3114                           
  3115                           
  3116                           ; 2 bytes @ 0x4
  3117     0074                     	ds	1
  3118     0075                     lcdWriteCtrlWord@lower_nibble:
  3119     0075                     lcdWriteDspData@lower_nibble:	
  3120                           ; 1 bytes @ 0x5
  3121                           
  3122     0075                     ___awdiv@counter:	
  3123                           ; 1 bytes @ 0x5
  3124                           
  3125                           
  3126                           ; 1 bytes @ 0x5
  3127     0075                     	ds	1
  3128     0076                     ?___lwdiv:
  3129     0076                     lcdWriteCtrlWord@x:	
  3130                           ; 2 bytes @ 0x6
  3131                           
  3132     0076                     lcdWriteDspData@x:	
  3133                           ; 1 bytes @ 0x6
  3134                           
  3135     0076                     ___awdiv@sign:	
  3136                           ; 1 bytes @ 0x6
  3137                           
  3138     0076                     ___lwdiv@divisor:	
  3139                           ; 1 bytes @ 0x6
  3140                           
  3141                           
  3142                           ; 2 bytes @ 0x6
  3143     0076                     	ds	1
  3144     0077                     ?_lcdCtrl_SetPos:
  3145     0077                     ??_lcdCtrl_FunctionSet:	
  3146                           ; 1 bytes @ 0x7
  3147                           
  3148     0077                     ?_lcdCtrl_OnOffDisplay:	
  3149                           ; 1 bytes @ 0x7
  3150                           
  3151     0077                     ??_lcdCtrl_SetEntryMode:	
  3152                           ; 1 bytes @ 0x7
  3153                           
  3154     0077                     ??_lcdCtrl_ClearDisplay:	
  3155                           ; 1 bytes @ 0x7
  3156                           
  3157     0077                     lcdCtrl_SetPos@col:	
  3158                           ; 1 bytes @ 0x7
  3159                           
  3160     0077                     lcdCtrl_OnOffDisplay@cursor_state:	
  3161                           ; 1 bytes @ 0x7
  3162                           
  3163     0077                     ___awdiv@quotient:	
  3164                           ; 1 bytes @ 0x7
  3165                           
  3166                           
  3167                           ; 2 bytes @ 0x7
  3168     0077                     	ds	1
  3169     0078                     ??_lcdCtrl_SetPos:
  3170     0078                     ??_lcdCtrl_OnOffDisplay:	
  3171                           ; 1 bytes @ 0x8
  3172                           
  3173     0078                     lcdCtrl_SetPos@row:	
  3174                           ; 1 bytes @ 0x8
  3175                           
  3176     0078                     ___lwdiv@dividend:	
  3177                           ; 1 bytes @ 0x8
  3178                           
  3179                           
  3180                           ; 2 bytes @ 0x8
  3181     0078                     	ds	1
  3182     0079                     ?___awmod:
  3183     0079                     lcdCtrl_SetPos@ramAddr:	
  3184                           ; 2 bytes @ 0x9
  3185                           
  3186     0079                     lcdCtrl_OnOffDisplay@display_state:	
  3187                           ; 1 bytes @ 0x9
  3188                           
  3189     0079                     ___awmod@divisor:	
  3190                           ; 1 bytes @ 0x9
  3191                           
  3192                           
  3193                           ; 2 bytes @ 0x9
  3194     0079                     	ds	1
  3195     007A                     ??___lwdiv:
  3196     007A                     lcdCtrl_OnOffDisplay@pattern:	
  3197                           ; 1 bytes @ 0xA
  3198                           
  3199                           
  3200                           ; 1 bytes @ 0xA
  3201     007A                     	ds	1
  3202     007B                     ??_initLCD:
  3203     007B                     ___awmod@dividend:	
  3204                           ; 1 bytes @ 0xB
  3205                           
  3206     007B                     ___lwdiv@quotient:	
  3207                           ; 2 bytes @ 0xB
  3208                           
  3209                           
  3210                           ; 2 bytes @ 0xB
  3211     007B                     	ds	2
  3212     007D                     ??___awmod:
  3213     007D                     ___lwdiv@counter:	
  3214                           ; 1 bytes @ 0xD
  3215                           
  3216                           
  3217                           ; 1 bytes @ 0xD
  3218     007D                     	ds	1
  3219                           
  3220                           	psect	cstackBANK0
  3221     0020                     __pcstackBANK0:
  3222     0020                     ?___lwmod:
  3223     0020                     ___awmod@counter:	
  3224                           ; 2 bytes @ 0x0
  3225                           
  3226     0020                     ___lwmod@divisor:	
  3227                           ; 1 bytes @ 0x0
  3228                           
  3229                           
  3230                           ; 2 bytes @ 0x0
  3231     0020                     	ds	1
  3232     0021                     ___awmod@sign:
  3233                           
  3234                           ; 1 bytes @ 0x1
  3235     0021                     	ds	1
  3236     0022                     ??_dspTaskW_OnLCD:
  3237     0022                     ___lwmod@dividend:	
  3238                           ; 1 bytes @ 0x2
  3239                           
  3240                           
  3241                           ; 2 bytes @ 0x2
  3242     0022                     	ds	2
  3243     0024                     ??___lwmod:
  3244     0024                     dspTaskW_OnLCD@Wlvl:	
  3245                           ; 1 bytes @ 0x4
  3246                           
  3247                           
  3248                           ; 2 bytes @ 0x4
  3249     0024                     	ds	1
  3250     0025                     ___lwmod@counter:
  3251                           
  3252                           ; 1 bytes @ 0x5
  3253     0025                     	ds	1
  3254     0026                     ??_dspTaskT_OnLCD:
  3255     0026                     dspTaskW_OnLCD@dig0:	
  3256                           ; 1 bytes @ 0x6
  3257                           
  3258                           
  3259                           ; 1 bytes @ 0x6
  3260     0026                     	ds	1
  3261     0027                     dspTaskW_OnLCD@dig1:
  3262                           
  3263                           ; 1 bytes @ 0x7
  3264     0027                     	ds	1
  3265     0028                     dspTaskW_OnLCD@dig2:
  3266     0028                     dspTaskT_OnLCD@temp:	
  3267                           ; 1 bytes @ 0x8
  3268                           
  3269                           
  3270                           ; 2 bytes @ 0x8
  3271     0028                     	ds	1
  3272     0029                     dspTaskW_OnLCD@dig3:
  3273                           
  3274                           ; 1 bytes @ 0x9
  3275     0029                     	ds	1
  3276     002A                     dspTaskT_OnLCD@dig0:
  3277     002A                     dspTaskW_OnLCD@count:	
  3278                           ; 1 bytes @ 0xA
  3279                           
  3280                           
  3281                           ; 2 bytes @ 0xA
  3282     002A                     	ds	1
  3283     002B                     dspTaskT_OnLCD@dig1:
  3284                           
  3285                           ; 1 bytes @ 0xB
  3286     002B                     	ds	1
  3287     002C                     dspTaskT_OnLCD@dig2:
  3288                           
  3289                           ; 1 bytes @ 0xC
  3290     002C                     	ds	1
  3291     002D                     dspTaskT_OnLCD@dig3:
  3292                           
  3293                           ; 1 bytes @ 0xD
  3294     002D                     	ds	1
  3295     002E                     dspTaskT_OnLCD@count:
  3296                           
  3297                           ; 2 bytes @ 0xE
  3298     002E                     	ds	2
  3299     0030                     ??_main:
  3300                           
  3301                           ; 1 bytes @ 0x10
  3302     0030                     	ds	1
  3303     0031                     main@message1:
  3304                           
  3305                           ; 17 bytes @ 0x11
  3306     0031                     	ds	17
  3307     0042                     main@message2:
  3308                           
  3309                           ; 17 bytes @ 0x22
  3310     0042                     	ds	17
  3311     0053                     main@message4:
  3312                           
  3313                           ; 14 bytes @ 0x33
  3314     0053                     	ds	14
  3315     0061                     main@message3:
  3316                           
  3317                           ; 13 bytes @ 0x41
  3318     0061                     	ds	13
  3319     006E                     main@i:
  3320                           
  3321                           ; 2 bytes @ 0x4E
  3322     006E                     	ds	2
  3323                           
  3324                           	psect	maintext
  3325     06A5                     __pmaintext:	
  3326 ;;
  3327 ;;Main: autosize = 0, tempsize = 1, incstack = 0, save=0
  3328 ;;
  3329 ;; *************** function _main *****************
  3330 ;; Defined at:
  3331 ;;		line 23 in file "main.c"
  3332 ;; Parameters:    Size  Location     Type
  3333 ;;		None
  3334 ;; Auto vars:     Size  Location     Type
  3335 ;;  message6       13   13[BANK1 ] unsigned char [13]
  3336 ;;  message5       13    0[BANK1 ] unsigned char [13]
  3337 ;;  i               2   28[BANK1 ] unsigned int 
  3338 ;;  message4       14   51[BANK0 ] unsigned char [14]
  3339 ;;  message3       13   65[BANK0 ] unsigned char [13]
  3340 ;;  i               2   26[BANK1 ] unsigned int 
  3341 ;;  message2       17   34[BANK0 ] unsigned char [17]
  3342 ;;  message1       17   17[BANK0 ] unsigned char [17]
  3343 ;;  i               2   78[BANK0 ] unsigned int 
  3344 ;;  temp            2    0        unsigned int 
  3345 ;;  result          2    0        unsigned int 
  3346 ;; Return value:  Size  Location     Type
  3347 ;;                  1    wreg      void 
  3348 ;; Registers used:
  3349 ;;		wreg, fsr0l, fsr0h, fsr1l, fsr1h, status,2, status,0, pclath, cstack
  3350 ;; Tracked objects:
  3351 ;;		On entry : B3F/0
  3352 ;;		On exit  : 0/0
  3353 ;;		Unchanged: 0/0
  3354 ;; Data sizes:     COMMON   BANK0   BANK1   BANK2   BANK3   BANK4   BANK5   BANK6   BANK7   BANK8   BANK9  BANK10  BANK1
      +1  BANK12  BANK13  BANK14  BANK15  BANK16  BANK17  BANK18  BANK19  BANK20  BANK21  BANK22  BANK23  BANK24  BANK25  BANK2
      +6  BANK27  BANK28  BANK29  BANK30  BANK31  BANK32  BANK33  BANK34  BANK35  BANK36  BANK37  BANK38  BANK39  BANK40  BANK4
      +1  BANK42  BANK43  BANK44  BANK45  BANK46  BANK47  BANK48  BANK49  BANK50
  3355 ;;      Params:         0       0       0       0       0       0       0       0       0       0       0       0       
      +0       0       0       0       0       0       0       0       0       0       0       0       0       0       0       
      +0       0       0       0       0       0       0       0       0       0       0       0       0       0       0       
      +0       0       0       0       0       0       0       0       0       0
  3356 ;;      Locals:         0      63      30       0       0       0       0       0       0       0       0       0       
      +0       0       0       0       0       0       0       0       0       0       0       0       0       0       0       
      +0       0       0       0       0       0       0       0       0       0       0       0       0       0       0       
      +0       0       0       0       0       0       0       0       0       0
  3357 ;;      Temps:          0       1       0       0       0       0       0       0       0       0       0       0       
      +0       0       0       0       0       0       0       0       0       0       0       0       0       0       0       
      +0       0       0       0       0       0       0       0       0       0       0       0       0       0       0       
      +0       0       0       0       0       0       0       0       0       0
  3358 ;;      Totals:         0      64      30       0       0       0       0       0       0       0       0       0       
      +0       0       0       0       0       0       0       0       0       0       0       0       0       0       0       
      +0       0       0       0       0       0       0       0       0       0       0       0       0       0       0       
      +0       0       0       0       0       0       0       0       0       0
  3359 ;;Total ram usage:       94 bytes
  3360 ;; Hardware stack levels required when called: 4
  3361 ;; This function calls:
  3362 ;;		_dspTaskT_OnLCD
  3363 ;;		_dspTaskW_OnLCD
  3364 ;;		_initADC
  3365 ;;		_initLCD
  3366 ;;		_initSysPins
  3367 ;;		_lcdCtrl_SetPos
  3368 ;;		_lcdWriteDspData
  3369 ;; This function is called by:
  3370 ;;		Startup code after reset
  3371 ;; This function uses a non-reentrant model
  3372 ;;
  3373                           
  3374     06A5                     _main:	
  3375                           ;psect for function _main
  3376                           
  3377     06A5                     l1463:	
  3378                           ;incstack = 0
  3379                           ; Regs used in _main: [wreg-fsr1h+status,2+status,0+pclath+cstack]
  3380                           
  3381                           
  3382                           ;main.c: 25:     unsigned int result;;main.c: 26:     unsigned int temp;;main.c: 27:    
      +                           initSysPins();
  3383     06A5  3183  231F  3186   	fcall	_initSysPins
  3384                           
  3385                           ;main.c: 28:     initADC();
  3386     06A8  3182  2297  3186   	fcall	_initADC
  3387     06AB                     l1465:
  3388                           
  3389                           ;main.c: 29:     char message1[] = "PressS2 for Temp";
  3390     06AB  3031               	movlw	low main@F12165
  3391     06AC  0086               	movwf	6
  3392     06AD  3001               	movlw	high main@F12165
  3393     06AE  0087               	movwf	7
  3394     06AF  3031               	movlw	low main@message1
  3395     06B0  0084               	movwf	4
  3396     06B1  3000               	movlw	high main@message1
  3397     06B2  0085               	movwf	5
  3398     06B3  3011               	movlw	17
  3399     06B4  0140               	movlb	0	; select bank0
  3400     06B5  00B0               	movwf	??_main
  3401     06B6                     u1090:
  3402     06B6  0016               	moviw fsr1++
  3403     06B7  001A               	movwi fsr0++
  3404     06B8  0BB0               	decfsz	??_main,f
  3405     06B9  2EB6               	goto	u1090
  3406     06BA                     l1467:
  3407                           
  3408                           ;main.c: 30:     char message2[] = "S3 for Water Lvl";
  3409     06BA  3020               	movlw	low main@F12167
  3410     06BB  0086               	movwf	6
  3411     06BC  3001               	movlw	high main@F12167
  3412     06BD  0087               	movwf	7
  3413     06BE  3042               	movlw	low main@message2
  3414     06BF  0084               	movwf	4
  3415     06C0  3000               	movlw	high main@message2
  3416     06C1  0085               	movwf	5
  3417     06C2  3011               	movlw	17
  3418     06C3  00B0               	movwf	??_main
  3419     06C4                     u1100:
  3420     06C4  0016               	moviw fsr1++
  3421     06C5  001A               	movwi fsr0++
  3422     06C6  0BB0               	decfsz	??_main,f
  3423     06C7  2EC4               	goto	u1100
  3424                           
  3425                           ;main.c: 31:     unsigned int i;;main.c: 32:     initLCD();
  3426     06C8  3183  2358  3186   	fcall	_initLCD
  3427                           
  3428                           ;main.c: 33:     lcdCtrl_SetPos(1, 1);
  3429     06CB  01F7               	clrf	lcdCtrl_SetPos@col
  3430     06CC  0AF7               	incf	lcdCtrl_SetPos@col,f
  3431     06CD  3001               	movlw	1
  3432     06CE  3182  22B2  3186   	fcall	_lcdCtrl_SetPos
  3433     06D1                     l1469:
  3434                           
  3435                           ;main.c: 34:     for(i = 0; message1[i]!=0; i++) {
  3436     06D1  0140               	movlb	0	; select bank0
  3437     06D2  01EE               	clrf	main@i
  3438     06D3  01EF               	clrf	main@i+1
  3439     06D4  2EE2               	goto	l1475
  3440     06D5                     l1471:
  3441                           
  3442                           ;main.c: 35:     lcdWriteDspData(message1[i]);
  3443     06D5  086E               	movf	main@i,w
  3444     06D6  3E31               	addlw	(low (main@message1| 0))& (0+255)
  3445     06D7  0086               	movwf	6
  3446     06D8  0187               	clrf	7
  3447     06D9  0801               	movf	1,w
  3448     06DA  3183  2307  3186   	fcall	_lcdWriteDspData
  3449     06DD                     l1473:
  3450                           
  3451                           ;main.c: 36:     }
  3452     06DD  3001               	movlw	1
  3453     06DE  0140               	movlb	0	; select bank0
  3454     06DF  07EE               	addwf	main@i,f
  3455     06E0  3000               	movlw	0
  3456     06E1  3DEF               	addwfc	main@i+1,f
  3457     06E2                     l1475:
  3458     06E2  086E               	movf	main@i,w
  3459     06E3  3E31               	addlw	(low (main@message1| 0))& (0+255)
  3460     06E4  0086               	movwf	6
  3461     06E5  0187               	clrf	7
  3462     06E6  0801               	movf	1,w
  3463     06E7  1D03               	btfss	3,2
  3464     06E8  2EEA               	goto	u1111
  3465     06E9  2EEB               	goto	u1110
  3466     06EA                     u1111:
  3467     06EA  2ED5               	goto	l1471
  3468     06EB                     u1110:
  3469     06EB                     l1477:
  3470                           
  3471                           ;main.c: 37:     lcdCtrl_SetPos(2, 1);
  3472     06EB  01F7               	clrf	lcdCtrl_SetPos@col
  3473     06EC  0AF7               	incf	lcdCtrl_SetPos@col,f
  3474     06ED  3002               	movlw	2
  3475     06EE  3182  22B2  3186   	fcall	_lcdCtrl_SetPos
  3476     06F1                     l1479:
  3477                           
  3478                           ;main.c: 38:     for(i = 0; message2[i]!=0; i++) {
  3479     06F1  0140               	movlb	0	; select bank0
  3480     06F2  01EE               	clrf	main@i
  3481     06F3  01EF               	clrf	main@i+1
  3482     06F4  2F02               	goto	l1485
  3483     06F5                     l1481:
  3484                           
  3485                           ;main.c: 39:     lcdWriteDspData(message2[i]);
  3486     06F5  086E               	movf	main@i,w
  3487     06F6  3E42               	addlw	(low (main@message2| 0))& (0+255)
  3488     06F7  0086               	movwf	6
  3489     06F8  0187               	clrf	7
  3490     06F9  0801               	movf	1,w
  3491     06FA  3183  2307  3186   	fcall	_lcdWriteDspData
  3492     06FD                     l1483:
  3493                           
  3494                           ;main.c: 40:     }
  3495     06FD  3001               	movlw	1
  3496     06FE  0140               	movlb	0	; select bank0
  3497     06FF  07EE               	addwf	main@i,f
  3498     0700  3000               	movlw	0
  3499     0701  3DEF               	addwfc	main@i+1,f
  3500     0702                     l1485:
  3501     0702  086E               	movf	main@i,w
  3502     0703  3E42               	addlw	(low (main@message2| 0))& (0+255)
  3503     0704  0086               	movwf	6
  3504     0705  0187               	clrf	7
  3505     0706  0801               	movf	1,w
  3506     0707  1D03               	btfss	3,2
  3507     0708  2F0A               	goto	u1121
  3508     0709  2F0B               	goto	u1120
  3509     070A                     u1121:
  3510     070A  2EF5               	goto	l1481
  3511     070B                     u1120:
  3512     070B                     l86:	
  3513                           ;main.c: 41:     while(1)
  3514                           
  3515                           
  3516                           ;main.c: 42:     {;main.c: 45:         if(PORTBbits.RB1==0){
  3517     070B  188D               	btfsc	13,1	;volatile
  3518     070C  2F0E               	goto	u1131
  3519     070D  2F0F               	goto	u1130
  3520     070E                     u1131:
  3521     070E  2F77               	goto	l87
  3522     070F                     u1130:
  3523     070F                     l1487:
  3524                           
  3525                           ;main.c: 46:                 char message3[] = "Temperature:";
  3526     070F  30BA               	movlw	low main@F12170
  3527     0710  0086               	movwf	6
  3528     0711  3000               	movlw	high main@F12170
  3529     0712  0087               	movwf	7
  3530     0713  3061               	movlw	low main@message3
  3531     0714  0084               	movwf	4
  3532     0715  3000               	movlw	high main@message3
  3533     0716  0085               	movwf	5
  3534     0717  300D               	movlw	13
  3535     0718  00B0               	movwf	??_main
  3536     0719                     u1140:
  3537     0719  0016               	moviw fsr1++
  3538     071A  001A               	movwi fsr0++
  3539     071B  0BB0               	decfsz	??_main,f
  3540     071C  2F19               	goto	u1140
  3541                           
  3542                           ;main.c: 47:                 char message4[] = "           ºC";
  3543     071D  3042               	movlw	low main@F12172
  3544     071E  0086               	movwf	6
  3545     071F  3001               	movlw	high main@F12172
  3546     0720  0087               	movwf	7
  3547     0721  3053               	movlw	low main@message4
  3548     0722  0084               	movwf	4
  3549     0723  3000               	movlw	high main@message4
  3550     0724  0085               	movwf	5
  3551     0725  300E               	movlw	14
  3552     0726  00B0               	movwf	??_main
  3553     0727                     u1150:
  3554     0727  0016               	moviw fsr1++
  3555     0728  001A               	movwi fsr0++
  3556     0729  0BB0               	decfsz	??_main,f
  3557     072A  2F27               	goto	u1150
  3558     072B                     l1489:
  3559                           
  3560                           ;main.c: 48:                 unsigned int i;;main.c: 49:                 initSysPins();
  3561     072B  3183  231F  3186   	fcall	_initSysPins
  3562     072E                     l1491:
  3563                           
  3564                           ;main.c: 50:                 initLCD();
  3565     072E  3183  2358  3186   	fcall	_initLCD
  3566     0731                     l1493:
  3567                           
  3568                           ;main.c: 51:                 lcdCtrl_SetPos(1, 1);
  3569     0731  01F7               	clrf	lcdCtrl_SetPos@col
  3570     0732  0AF7               	incf	lcdCtrl_SetPos@col,f
  3571     0733  3001               	movlw	1
  3572     0734  3182  22B2  3186   	fcall	_lcdCtrl_SetPos
  3573     0737                     l1495:
  3574                           
  3575                           ;main.c: 52:                 for(i = 0; message3[i]!=0; i++) {
  3576     0737  0141               	movlb	1	; select bank1
  3577     0738  01E1               	clrf	main@i_183^(0+128)
  3578     0739  01E2               	clrf	(main@i_183+1)^(0+128)
  3579     073A  2F48               	goto	l1501
  3580     073B                     l1497:
  3581                           
  3582                           ;main.c: 53:                 lcdWriteDspData(message3[i]);
  3583     073B  0861               	movf	main@i_183^(0+128),w
  3584     073C  3E61               	addlw	(low (main@message3| 0))& (0+255)
  3585     073D  0086               	movwf	6
  3586     073E  0187               	clrf	7
  3587     073F  0801               	movf	1,w
  3588     0740  3183  2307  3186   	fcall	_lcdWriteDspData
  3589     0743                     l1499:
  3590                           
  3591                           ;main.c: 54:                 }
  3592     0743  3001               	movlw	1
  3593     0744  0141               	movlb	1	; select bank1
  3594     0745  07E1               	addwf	main@i_183^(0+128),f
  3595     0746  3000               	movlw	0
  3596     0747  3DE2               	addwfc	(main@i_183+1)^(0+128),f
  3597     0748                     l1501:
  3598     0748  0861               	movf	main@i_183^(0+128),w
  3599     0749  3E61               	addlw	(low (main@message3| 0))& (0+255)
  3600     074A  0086               	movwf	6
  3601     074B  0187               	clrf	7
  3602     074C  0801               	movf	1,w
  3603     074D  1D03               	btfss	3,2
  3604     074E  2F50               	goto	u1161
  3605     074F  2F51               	goto	u1160
  3606     0750                     u1161:
  3607     0750  2F3B               	goto	l1497
  3608     0751                     u1160:
  3609     0751                     l1503:
  3610                           
  3611                           ;main.c: 55:                 lcdCtrl_SetPos(2, 1);
  3612     0751  01F7               	clrf	lcdCtrl_SetPos@col
  3613     0752  0AF7               	incf	lcdCtrl_SetPos@col,f
  3614     0753  3002               	movlw	2
  3615     0754  3182  22B2  3186   	fcall	_lcdCtrl_SetPos
  3616     0757                     l1505:
  3617                           
  3618                           ;main.c: 56:                 for(i = 0; message4[i]!=0; i++) {
  3619     0757  0141               	movlb	1	; select bank1
  3620     0758  01E1               	clrf	main@i_183^(0+128)
  3621     0759  01E2               	clrf	(main@i_183+1)^(0+128)
  3622     075A  2F68               	goto	l1511
  3623     075B                     l1507:
  3624                           
  3625                           ;main.c: 57:                 lcdWriteDspData(message4[i]);
  3626     075B  0861               	movf	main@i_183^(0+128),w
  3627     075C  3E53               	addlw	(low (main@message4| 0))& (0+255)
  3628     075D  0086               	movwf	6
  3629     075E  0187               	clrf	7
  3630     075F  0801               	movf	1,w
  3631     0760  3183  2307  3186   	fcall	_lcdWriteDspData
  3632     0763                     l1509:
  3633                           
  3634                           ;main.c: 58:                 }
  3635     0763  3001               	movlw	1
  3636     0764  0141               	movlb	1	; select bank1
  3637     0765  07E1               	addwf	main@i_183^(0+128),f
  3638     0766  3000               	movlw	0
  3639     0767  3DE2               	addwfc	(main@i_183+1)^(0+128),f
  3640     0768                     l1511:
  3641     0768  0861               	movf	main@i_183^(0+128),w
  3642     0769  3E53               	addlw	(low (main@message4| 0))& (0+255)
  3643     076A  0086               	movwf	6
  3644     076B  0187               	clrf	7
  3645     076C  0801               	movf	1,w
  3646     076D  1D03               	btfss	3,2
  3647     076E  2F70               	goto	u1171
  3648     076F  2F71               	goto	u1170
  3649     0770                     u1171:
  3650     0770  2F5B               	goto	l1507
  3651     0771                     u1170:
  3652     0771                     l1513:
  3653                           
  3654                           ;main.c: 59:                 PORTA = 0b00000000;
  3655     0771  0140               	movlb	0	; select bank0
  3656     0772  018C               	clrf	12	;volatile
  3657     0773                     l1515:
  3658                           
  3659                           ;main.c: 61:                     dspTaskT_OnLCD();
  3660     0773  3185  25E1  3186   	fcall	_dspTaskT_OnLCD
  3661     0776  2F73               	goto	l1515
  3662     0777                     l87:	
  3663                           ;main.c: 64:             }
  3664                           
  3665                           
  3666                           ;main.c: 68:         if(PORTBbits.RB2==0){
  3667     0777  190D               	btfsc	13,2	;volatile
  3668     0778  2F7A               	goto	u1181
  3669     0779  2F7B               	goto	u1180
  3670     077A                     u1181:
  3671     077A  2F0B               	goto	l86
  3672     077B                     u1180:
  3673     077B                     l1517:
  3674                           
  3675                           ;main.c: 69:             char message5[] = "Water Level:";
  3676     077B  30AD               	movlw	low main@F12175
  3677     077C  0086               	movwf	6
  3678     077D  3000               	movlw	high main@F12175
  3679     077E  0087               	movwf	7
  3680     077F  30C7               	movlw	low main@message5
  3681     0780  0084               	movwf	4
  3682     0781  3000               	movlw	high main@message5
  3683     0782  0085               	movwf	5
  3684     0783  300D               	movlw	13
  3685     0784  00B0               	movwf	??_main
  3686     0785                     u1190:
  3687     0785  0016               	moviw fsr1++
  3688     0786  001A               	movwi fsr0++
  3689     0787  0BB0               	decfsz	??_main,f
  3690     0788  2F85               	goto	u1190
  3691                           
  3692                           ;main.c: 70:             char message6[] = "           %";
  3693     0789  30A0               	movlw	low main@F12177
  3694     078A  0086               	movwf	6
  3695     078B  3000               	movlw	high main@F12177
  3696     078C  0087               	movwf	7
  3697     078D  30D4               	movlw	low main@message6
  3698     078E  0084               	movwf	4
  3699     078F  3000               	movlw	high main@message6
  3700     0790  0085               	movwf	5
  3701     0791  300D               	movlw	13
  3702     0792  00B0               	movwf	??_main
  3703     0793                     u1200:
  3704     0793  0016               	moviw fsr1++
  3705     0794  001A               	movwi fsr0++
  3706     0795  0BB0               	decfsz	??_main,f
  3707     0796  2F93               	goto	u1200
  3708     0797                     l1519:
  3709                           
  3710                           ;main.c: 71:             unsigned int i;;main.c: 72:             initSysPins();
  3711     0797  3183  231F  3186   	fcall	_initSysPins
  3712     079A                     l1521:
  3713                           
  3714                           ;main.c: 73:             initLCD();
  3715     079A  3183  2358  3186   	fcall	_initLCD
  3716     079D                     l1523:
  3717                           
  3718                           ;main.c: 74:             lcdCtrl_SetPos(1, 1);
  3719     079D  01F7               	clrf	lcdCtrl_SetPos@col
  3720     079E  0AF7               	incf	lcdCtrl_SetPos@col,f
  3721     079F  3001               	movlw	1
  3722     07A0  3182  22B2  3186   	fcall	_lcdCtrl_SetPos
  3723     07A3                     l1525:
  3724                           
  3725                           ;main.c: 75:             for(i = 0; message5[i]!=0; i++) {
  3726     07A3  0141               	movlb	1	; select bank1
  3727     07A4  01E3               	clrf	main@i_188^(0+128)
  3728     07A5  01E4               	clrf	(main@i_188+1)^(0+128)
  3729     07A6  2FB4               	goto	l1531
  3730     07A7                     l1527:
  3731                           
  3732                           ;main.c: 76:             lcdWriteDspData(message5[i]);
  3733     07A7  0863               	movf	main@i_188^(0+128),w
  3734     07A8  3EC7               	addlw	(low (main@message5| 0))& (0+255)
  3735     07A9  0086               	movwf	6
  3736     07AA  0187               	clrf	7
  3737     07AB  0801               	movf	1,w
  3738     07AC  3183  2307  3186   	fcall	_lcdWriteDspData
  3739     07AF                     l1529:
  3740                           
  3741                           ;main.c: 77:             }
  3742     07AF  3001               	movlw	1
  3743     07B0  0141               	movlb	1	; select bank1
  3744     07B1  07E3               	addwf	main@i_188^(0+128),f
  3745     07B2  3000               	movlw	0
  3746     07B3  3DE4               	addwfc	(main@i_188+1)^(0+128),f
  3747     07B4                     l1531:
  3748     07B4  0863               	movf	main@i_188^(0+128),w
  3749     07B5  3EC7               	addlw	(low (main@message5| 0))& (0+255)
  3750     07B6  0086               	movwf	6
  3751     07B7  0187               	clrf	7
  3752     07B8  0801               	movf	1,w
  3753     07B9  1D03               	btfss	3,2
  3754     07BA  2FBC               	goto	u1211
  3755     07BB  2FBD               	goto	u1210
  3756     07BC                     u1211:
  3757     07BC  2FA7               	goto	l1527
  3758     07BD                     u1210:
  3759     07BD                     l1533:
  3760                           
  3761                           ;main.c: 78:             lcdCtrl_SetPos(2, 1);
  3762     07BD  01F7               	clrf	lcdCtrl_SetPos@col
  3763     07BE  0AF7               	incf	lcdCtrl_SetPos@col,f
  3764     07BF  3002               	movlw	2
  3765     07C0  3182  22B2  3186   	fcall	_lcdCtrl_SetPos
  3766     07C3                     l1535:
  3767                           
  3768                           ;main.c: 79:             for(i = 0; message6[i]!=0; i++) {
  3769     07C3  0141               	movlb	1	; select bank1
  3770     07C4  01E3               	clrf	main@i_188^(0+128)
  3771     07C5  01E4               	clrf	(main@i_188+1)^(0+128)
  3772     07C6  2FD4               	goto	l1541
  3773     07C7                     l1537:
  3774                           
  3775                           ;main.c: 80:             lcdWriteDspData(message6[i]);
  3776     07C7  0863               	movf	main@i_188^(0+128),w
  3777     07C8  3ED4               	addlw	(low (main@message6| 0))& (0+255)
  3778     07C9  0086               	movwf	6
  3779     07CA  0187               	clrf	7
  3780     07CB  0801               	movf	1,w
  3781     07CC  3183  2307  3186   	fcall	_lcdWriteDspData
  3782     07CF                     l1539:
  3783                           
  3784                           ;main.c: 81:             }
  3785     07CF  3001               	movlw	1
  3786     07D0  0141               	movlb	1	; select bank1
  3787     07D1  07E3               	addwf	main@i_188^(0+128),f
  3788     07D2  3000               	movlw	0
  3789     07D3  3DE4               	addwfc	(main@i_188+1)^(0+128),f
  3790     07D4                     l1541:
  3791     07D4  0863               	movf	main@i_188^(0+128),w
  3792     07D5  3ED4               	addlw	(low (main@message6| 0))& (0+255)
  3793     07D6  0086               	movwf	6
  3794     07D7  0187               	clrf	7
  3795     07D8  0801               	movf	1,w
  3796     07D9  1D03               	btfss	3,2
  3797     07DA  2FDC               	goto	u1221
  3798     07DB  2FDD               	goto	u1220
  3799     07DC                     u1221:
  3800     07DC  2FC7               	goto	l1537
  3801     07DD                     u1220:
  3802     07DD                     l1543:
  3803                           
  3804                           ;main.c: 82:             PORTA = 0b00000000;
  3805     07DD  0140               	movlb	0	; select bank0
  3806     07DE  018C               	clrf	12	;volatile
  3807     07DF                     l1545:
  3808                           
  3809                           ;main.c: 84:                 dspTaskW_OnLCD();
  3810     07DF  3185  253B  3186   	fcall	_dspTaskW_OnLCD
  3811     07E2  2FDF               	goto	l1545
  3812     07E3  3180  2802         	ljmp	start
  3813     07E5                     __end_of_main:
  3814                           
  3815                           	psect	text1
  3816     031F                     __ptext1:	
  3817 ;; *************** function _initSysPins *****************
  3818 ;; Defined at:
  3819 ;;		line 103 in file "main.c"
  3820 ;; Parameters:    Size  Location     Type
  3821 ;;		None
  3822 ;; Auto vars:     Size  Location     Type
  3823 ;;		None
  3824 ;; Return value:  Size  Location     Type
  3825 ;;                  1    wreg      void 
  3826 ;; Registers used:
  3827 ;;		wreg, status,2
  3828 ;; Tracked objects:
  3829 ;;		On entry : 0/0
  3830 ;;		On exit  : 0/0
  3831 ;;		Unchanged: 0/0
  3832 ;; Data sizes:     COMMON   BANK0   BANK1   BANK2   BANK3   BANK4   BANK5   BANK6   BANK7   BANK8   BANK9  BANK10  BANK1
      +1  BANK12  BANK13  BANK14  BANK15  BANK16  BANK17  BANK18  BANK19  BANK20  BANK21  BANK22  BANK23  BANK24  BANK25  BANK2
      +6  BANK27  BANK28  BANK29  BANK30  BANK31  BANK32  BANK33  BANK34  BANK35  BANK36  BANK37  BANK38  BANK39  BANK40  BANK4
      +1  BANK42  BANK43  BANK44  BANK45  BANK46  BANK47  BANK48  BANK49  BANK50
  3833 ;;      Params:         0       0       0       0       0       0       0       0       0       0       0       0       
      +0       0       0       0       0       0       0       0       0       0       0       0       0       0       0       
      +0       0       0       0       0       0       0       0       0       0       0       0       0       0       0       
      +0       0       0       0       0       0       0       0       0       0
  3834 ;;      Locals:         0       0       0       0       0       0       0       0       0       0       0       0       
      +0       0       0       0       0       0       0       0       0       0       0       0       0       0       0       
      +0       0       0       0       0       0       0       0       0       0       0       0       0       0       0       
      +0       0       0       0       0       0       0       0       0       0
  3835 ;;      Temps:          0       0       0       0       0       0       0       0       0       0       0       0       
      +0       0       0       0       0       0       0       0       0       0       0       0       0       0       0       
      +0       0       0       0       0       0       0       0       0       0       0       0       0       0       0       
      +0       0       0       0       0       0       0       0       0       0
  3836 ;;      Totals:         0       0       0       0       0       0       0       0       0       0       0       0       
      +0       0       0       0       0       0       0       0       0       0       0       0       0       0       0       
      +0       0       0       0       0       0       0       0       0       0       0       0       0       0       0       
      +0       0       0       0       0       0       0       0       0       0
  3837 ;;Total ram usage:        0 bytes
  3838 ;; Hardware stack levels used: 1
  3839 ;; This function calls:
  3840 ;;		Nothing
  3841 ;; This function is called by:
  3842 ;;		_main
  3843 ;; This function uses a non-reentrant model
  3844 ;;
  3845                           
  3846     031F                     _initSysPins:	
  3847                           ;psect for function _initSysPins
  3848                           
  3849     031F                     l1397:	
  3850                           ;incstack = 0
  3851                           ; Regs used in _initSysPins: [wreg+status,2]
  3852                           
  3853                           
  3854                           ;main.c: 105:     ANSELA = 0b00001010;
  3855     031F  300A               	movlw	10
  3856     0320  017E               	movlb	62	; select bank62
  3857     0321  00B8               	movwf	56	;volatile
  3858                           
  3859                           ;main.c: 106:     TRISA = 0b11111010;
  3860     0322  30FA               	movlw	250
  3861     0323  0140               	movlb	0	; select bank0
  3862     0324  0091               	movwf	17	;volatile
  3863     0325                     l1399:
  3864                           
  3865                           ;main.c: 107:     ANSELB = 0b00000000;
  3866     0325  017E               	movlb	62	; select bank62
  3867     0326  01C3               	clrf	67	;volatile
  3868     0327                     l1401:
  3869                           
  3870                           ;main.c: 108:     TRISB = 0b11111110;
  3871     0327  30FE               	movlw	254
  3872     0328  0140               	movlb	0	; select bank0
  3873     0329  0092               	movwf	18	;volatile
  3874                           
  3875                           ;main.c: 109:     ANSELC = 0b00000000;
  3876     032A  017E               	movlb	62	; select bank62
  3877     032B  01CE               	clrf	78	;volatile
  3878                           
  3879                           ;main.c: 110:     TRISC = 0b00000000;
  3880     032C  0140               	movlb	0	; select bank0
  3881     032D  0193               	clrf	19	;volatile
  3882                           
  3883                           ;main.c: 111:     ANSELD = 0b00000000;
  3884     032E  017E               	movlb	62	; select bank62
  3885     032F  01D9               	clrf	89	;volatile
  3886     0330                     l1403:
  3887                           
  3888                           ;main.c: 112:     TRISD = 0b00001111;
  3889     0330  300F               	movlw	15
  3890     0331  0140               	movlb	0	; select bank0
  3891     0332  0094               	movwf	20	;volatile
  3892     0333                     l1405:
  3893                           
  3894                           ;main.c: 113:     ANSELE = 0b00000000;
  3895     0333  017E               	movlb	62	; select bank62
  3896     0334  01E4               	clrf	100	;volatile
  3897                           
  3898                           ;main.c: 114:     TRISE = 0b11101100;
  3899     0335  30EC               	movlw	236
  3900     0336  0140               	movlb	0	; select bank0
  3901     0337  0095               	movwf	21	;volatile
  3902     0338                     l120:
  3903     0338  0008               	return
  3904     0339                     __end_of_initSysPins:
  3905                           
  3906                           	psect	text2
  3907     0358                     __ptext2:	
  3908 ;; *************** function _initLCD *****************
  3909 ;; Defined at:
  3910 ;;		line 25 in file "lcd.c"
  3911 ;; Parameters:    Size  Location     Type
  3912 ;;		None
  3913 ;; Auto vars:     Size  Location     Type
  3914 ;;		None
  3915 ;; Return value:  Size  Location     Type
  3916 ;;                  1    wreg      void 
  3917 ;; Registers used:
  3918 ;;		wreg, status,2, status,0, pclath, cstack
  3919 ;; Tracked objects:
  3920 ;;		On entry : 0/0
  3921 ;;		On exit  : 0/0
  3922 ;;		Unchanged: 0/0
  3923 ;; Data sizes:     COMMON   BANK0   BANK1   BANK2   BANK3   BANK4   BANK5   BANK6   BANK7   BANK8   BANK9  BANK10  BANK1
      +1  BANK12  BANK13  BANK14  BANK15  BANK16  BANK17  BANK18  BANK19  BANK20  BANK21  BANK22  BANK23  BANK24  BANK25  BANK2
      +6  BANK27  BANK28  BANK29  BANK30  BANK31  BANK32  BANK33  BANK34  BANK35  BANK36  BANK37  BANK38  BANK39  BANK40  BANK4
      +1  BANK42  BANK43  BANK44  BANK45  BANK46  BANK47  BANK48  BANK49  BANK50
  3924 ;;      Params:         0       0       0       0       0       0       0       0       0       0       0       0       
      +0       0       0       0       0       0       0       0       0       0       0       0       0       0       0       
      +0       0       0       0       0       0       0       0       0       0       0       0       0       0       0       
      +0       0       0       0       0       0       0       0       0       0
  3925 ;;      Locals:         0       0       0       0       0       0       0       0       0       0       0       0       
      +0       0       0       0       0       0       0       0       0       0       0       0       0       0       0       
      +0       0       0       0       0       0       0       0       0       0       0       0       0       0       0       
      +0       0       0       0       0       0       0       0       0       0
  3926 ;;      Temps:          1       0       0       0       0       0       0       0       0       0       0       0       
      +0       0       0       0       0       0       0       0       0       0       0       0       0       0       0       
      +0       0       0       0       0       0       0       0       0       0       0       0       0       0       0       
      +0       0       0       0       0       0       0       0       0       0
  3927 ;;      Totals:         1       0       0       0       0       0       0       0       0       0       0       0       
      +0       0       0       0       0       0       0       0       0       0       0       0       0       0       0       
      +0       0       0       0       0       0       0       0       0       0       0       0       0       0       0       
      +0       0       0       0       0       0       0       0       0       0
  3928 ;;Total ram usage:        1 bytes
  3929 ;; Hardware stack levels used: 1
  3930 ;; Hardware stack levels required when called: 3
  3931 ;; This function calls:
  3932 ;;		_lcdCtrl_ClearDisplay
  3933 ;;		_lcdCtrl_FunctionSet
  3934 ;;		_lcdCtrl_OnOffDisplay
  3935 ;;		_lcdCtrl_SetEntryMode
  3936 ;;		_lcdWriteCtrlWord
  3937 ;; This function is called by:
  3938 ;;		_main
  3939 ;; This function uses a non-reentrant model
  3940 ;;
  3941                           
  3942     0358                     _initLCD:	
  3943                           ;psect for function _initLCD
  3944                           
  3945     0358                     l1407:	
  3946                           ;incstack = 0
  3947                           ; Regs used in _initLCD: [wreg+status,2+status,0+pclath+cstack]
  3948                           
  3949                           
  3950                           ;lcd.c: 28:     _delay((unsigned long)((15)*(4000000/4000.0)));
  3951     0358  3014               	movlw	20
  3952     0359  00FB               	movwf	??_initLCD
  3953     035A  307A               	movlw	122
  3954     035B                     u1237:
  3955     035B  0B89               	decfsz	9,f
  3956     035C  2B5B               	goto	u1237
  3957     035D  0BFB               	decfsz	??_initLCD,f
  3958     035E  2B5B               	goto	u1237
  3959     035F                     l1409:
  3960                           
  3961                           ;lcd.c: 29:     lcdWriteCtrlWord(0b00000011);
  3962     035F  3003               	movlw	3
  3963     0360  3182  22EF  3183   	fcall	_lcdWriteCtrlWord
  3964     0363                     l1411:
  3965                           
  3966                           ;lcd.c: 30:     _delay((unsigned long)((5)*(4000000/4000.0)));
  3967     0363  3007               	movlw	7
  3968     0364  00FB               	movwf	??_initLCD
  3969     0365  307D               	movlw	125
  3970     0366                     u1247:
  3971     0366  0B89               	decfsz	9,f
  3972     0367  2B66               	goto	u1247
  3973     0368  0BFB               	decfsz	??_initLCD,f
  3974     0369  2B66               	goto	u1247
  3975     036A  0000               	nop
  3976                           
  3977                           ;lcd.c: 31:     lcdWriteCtrlWord(0b00000010);
  3978     036B  3002               	movlw	2
  3979     036C  3182  22EF  3183   	fcall	_lcdWriteCtrlWord
  3980                           
  3981                           ;lcd.c: 32:     lcdCtrl_FunctionSet();
  3982     036F  3182  2287  3183   	fcall	_lcdCtrl_FunctionSet
  3983                           
  3984                           ;lcd.c: 33:     lcdCtrl_OnOffDisplay(1, 0);
  3985     0372  01F7               	clrf	lcdCtrl_OnOffDisplay@cursor_state
  3986     0373  3001               	movlw	1
  3987     0374  3182  22D8  3183   	fcall	_lcdCtrl_OnOffDisplay
  3988                           
  3989                           ;lcd.c: 34:     lcdCtrl_SetEntryMode();
  3990     0377  3182  228C  3183   	fcall	_lcdCtrl_SetEntryMode
  3991                           
  3992                           ;lcd.c: 35:     lcdCtrl_ClearDisplay();
  3993     037A  3182  2282  3183   	fcall	_lcdCtrl_ClearDisplay
  3994     037D                     l157:
  3995     037D  0008               	return
  3996     037E                     __end_of_initLCD:
  3997                           
  3998                           	psect	text3
  3999     028C                     __ptext3:	
  4000 ;; *************** function _lcdCtrl_SetEntryMode *****************
  4001 ;; Defined at:
  4002 ;;		line 93 in file "lcd.c"
  4003 ;; Parameters:    Size  Location     Type
  4004 ;;		None
  4005 ;; Auto vars:     Size  Location     Type
  4006 ;;		None
  4007 ;; Return value:  Size  Location     Type
  4008 ;;                  1    wreg      void 
  4009 ;; Registers used:
  4010 ;;		wreg, status,2, status,0, pclath, cstack
  4011 ;; Tracked objects:
  4012 ;;		On entry : 0/0
  4013 ;;		On exit  : 0/0
  4014 ;;		Unchanged: 0/0
  4015 ;; Data sizes:     COMMON   BANK0   BANK1   BANK2   BANK3   BANK4   BANK5   BANK6   BANK7   BANK8   BANK9  BANK10  BANK1
      +1  BANK12  BANK13  BANK14  BANK15  BANK16  BANK17  BANK18  BANK19  BANK20  BANK21  BANK22  BANK23  BANK24  BANK25  BANK2
      +6  BANK27  BANK28  BANK29  BANK30  BANK31  BANK32  BANK33  BANK34  BANK35  BANK36  BANK37  BANK38  BANK39  BANK40  BANK4
      +1  BANK42  BANK43  BANK44  BANK45  BANK46  BANK47  BANK48  BANK49  BANK50
  4016 ;;      Params:         0       0       0       0       0       0       0       0       0       0       0       0       
      +0       0       0       0       0       0       0       0       0       0       0       0       0       0       0       
      +0       0       0       0       0       0       0       0       0       0       0       0       0       0       0       
      +0       0       0       0       0       0       0       0       0       0
  4017 ;;      Locals:         0       0       0       0       0       0       0       0       0       0       0       0       
      +0       0       0       0       0       0       0       0       0       0       0       0       0       0       0       
      +0       0       0       0       0       0       0       0       0       0       0       0       0       0       0       
      +0       0       0       0       0       0       0       0       0       0
  4018 ;;      Temps:          0       0       0       0       0       0       0       0       0       0       0       0       
      +0       0       0       0       0       0       0       0       0       0       0       0       0       0       0       
      +0       0       0       0       0       0       0       0       0       0       0       0       0       0       0       
      +0       0       0       0       0       0       0       0       0       0
  4019 ;;      Totals:         0       0       0       0       0       0       0       0       0       0       0       0       
      +0       0       0       0       0       0       0       0       0       0       0       0       0       0       0       
      +0       0       0       0       0       0       0       0       0       0       0       0       0       0       0       
      +0       0       0       0       0       0       0       0       0       0
  4020 ;;Total ram usage:        0 bytes
  4021 ;; Hardware stack levels used: 1
  4022 ;; Hardware stack levels required when called: 2
  4023 ;; This function calls:
  4024 ;;		_lcdWriteCtrlWord
  4025 ;; This function is called by:
  4026 ;;		_initLCD
  4027 ;; This function uses a non-reentrant model
  4028 ;;
  4029                           
  4030     028C                     _lcdCtrl_SetEntryMode:	
  4031                           ;psect for function _lcdCtrl_SetEntryMode
  4032                           
  4033     028C                     l1243:	
  4034                           ;incstack = 0
  4035                           ; Regs used in _lcdCtrl_SetEntryMode: [wreg+status,2+status,0+pclath+cstack]
  4036                           
  4037                           
  4038                           ;lcd.c: 95:     lcdWriteCtrlWord(0b000001100);
  4039     028C  300C               	movlw	12
  4040     028D  3182  22EF  3182   	fcall	_lcdWriteCtrlWord
  4041     0290                     l182:
  4042     0290  0008               	return
  4043     0291                     __end_of_lcdCtrl_SetEntryMode:
  4044                           
  4045                           	psect	text4
  4046     02D8                     __ptext4:	
  4047 ;; *************** function _lcdCtrl_OnOffDisplay *****************
  4048 ;; Defined at:
  4049 ;;		line 84 in file "lcd.c"
  4050 ;; Parameters:    Size  Location     Type
  4051 ;;  display_stat    1    wreg     unsigned char 
  4052 ;;  cursor_state    1    7[COMMON] unsigned char 
  4053 ;; Auto vars:     Size  Location     Type
  4054 ;;  display_stat    1    9[COMMON] unsigned char 
  4055 ;;  pattern         1   10[COMMON] unsigned char 
  4056 ;; Return value:  Size  Location     Type
  4057 ;;                  1    wreg      void 
  4058 ;; Registers used:
  4059 ;;		wreg, status,2, status,0, pclath, cstack
  4060 ;; Tracked objects:
  4061 ;;		On entry : 0/0
  4062 ;;		On exit  : 0/0
  4063 ;;		Unchanged: 0/0
  4064 ;; Data sizes:     COMMON   BANK0   BANK1   BANK2   BANK3   BANK4   BANK5   BANK6   BANK7   BANK8   BANK9  BANK10  BANK1
      +1  BANK12  BANK13  BANK14  BANK15  BANK16  BANK17  BANK18  BANK19  BANK20  BANK21  BANK22  BANK23  BANK24  BANK25  BANK2
      +6  BANK27  BANK28  BANK29  BANK30  BANK31  BANK32  BANK33  BANK34  BANK35  BANK36  BANK37  BANK38  BANK39  BANK40  BANK4
      +1  BANK42  BANK43  BANK44  BANK45  BANK46  BANK47  BANK48  BANK49  BANK50
  4065 ;;      Params:         1       0       0       0       0       0       0       0       0       0       0       0       
      +0       0       0       0       0       0       0       0       0       0       0       0       0       0       0       
      +0       0       0       0       0       0       0       0       0       0       0       0       0       0       0       
      +0       0       0       0       0       0       0       0       0       0
  4066 ;;      Locals:         2       0       0       0       0       0       0       0       0       0       0       0       
      +0       0       0       0       0       0       0       0       0       0       0       0       0       0       0       
      +0       0       0       0       0       0       0       0       0       0       0       0       0       0       0       
      +0       0       0       0       0       0       0       0       0       0
  4067 ;;      Temps:          1       0       0       0       0       0       0       0       0       0       0       0       
      +0       0       0       0       0       0       0       0       0       0       0       0       0       0       0       
      +0       0       0       0       0       0       0       0       0       0       0       0       0       0       0       
      +0       0       0       0       0       0       0       0       0       0
  4068 ;;      Totals:         4       0       0       0       0       0       0       0       0       0       0       0       
      +0       0       0       0       0       0       0       0       0       0       0       0       0       0       0       
      +0       0       0       0       0       0       0       0       0       0       0       0       0       0       0       
      +0       0       0       0       0       0       0       0       0       0
  4069 ;;Total ram usage:        4 bytes
  4070 ;; Hardware stack levels used: 1
  4071 ;; Hardware stack levels required when called: 2
  4072 ;; This function calls:
  4073 ;;		_lcdWriteCtrlWord
  4074 ;; This function is called by:
  4075 ;;		_initLCD
  4076 ;; This function uses a non-reentrant model
  4077 ;;
  4078                           
  4079     02D8                     _lcdCtrl_OnOffDisplay:	
  4080                           ;psect for function _lcdCtrl_OnOffDisplay
  4081                           
  4082                           
  4083                           ;incstack = 0
  4084                           ; Regs used in _lcdCtrl_OnOffDisplay: [wreg+status,2+status,0+pclath+cstack]
  4085                           ;lcdCtrl_OnOffDisplay@display_state stored from wreg
  4086     02D8  00F9               	movwf	lcdCtrl_OnOffDisplay@display_state
  4087     02D9                     l1231:
  4088                           
  4089                           ;lcd.c: 84: void lcdCtrl_OnOffDisplay(char display_state, char cursor_state);lcd.c: 85: 
      +                          {;lcd.c: 86:     char pattern = 0b00001000;
  4090     02D9  3008               	movlw	8
  4091     02DA  00FA               	movwf	lcdCtrl_OnOffDisplay@pattern
  4092     02DB                     l1233:
  4093                           
  4094                           ;lcd.c: 87:     if(display_state == 1)
  4095     02DB  0379               	decf	lcdCtrl_OnOffDisplay@display_state,w
  4096     02DC  1D03               	btfss	3,2
  4097     02DD  2ADF               	goto	u691
  4098     02DE  2AE0               	goto	u690
  4099     02DF                     u691:
  4100     02DF  2AE1               	goto	l1237
  4101     02E0                     u690:
  4102     02E0                     l1235:
  4103                           
  4104                           ;lcd.c: 88:     pattern |= 0b00000100;
  4105     02E0  157A               	bsf	lcdCtrl_OnOffDisplay@pattern,2
  4106     02E1                     l1237:
  4107                           
  4108                           ;lcd.c: 89:     if(cursor_state == 1)
  4109     02E1  0377               	decf	lcdCtrl_OnOffDisplay@cursor_state,w
  4110     02E2  1D03               	btfss	3,2
  4111     02E3  2AE5               	goto	u701
  4112     02E4  2AE6               	goto	u700
  4113     02E5                     u701:
  4114     02E5  2AEA               	goto	l1241
  4115     02E6                     u700:
  4116     02E6                     l1239:
  4117                           
  4118                           ;lcd.c: 90:     pattern |= 0b00000011;
  4119     02E6  3003               	movlw	3
  4120     02E7  00F8               	movwf	??_lcdCtrl_OnOffDisplay
  4121     02E8  0878               	movf	??_lcdCtrl_OnOffDisplay,w
  4122     02E9  04FA               	iorwf	lcdCtrl_OnOffDisplay@pattern,f
  4123     02EA                     l1241:
  4124                           
  4125                           ;lcd.c: 91:     lcdWriteCtrlWord(pattern);
  4126     02EA  087A               	movf	lcdCtrl_OnOffDisplay@pattern,w
  4127     02EB  3182  22EF  3182   	fcall	_lcdWriteCtrlWord
  4128     02EE                     l179:
  4129     02EE  0008               	return
  4130     02EF                     __end_of_lcdCtrl_OnOffDisplay:
  4131                           
  4132                           	psect	text5
  4133     0287                     __ptext5:	
  4134 ;; *************** function _lcdCtrl_FunctionSet *****************
  4135 ;; Defined at:
  4136 ;;		line 80 in file "lcd.c"
  4137 ;; Parameters:    Size  Location     Type
  4138 ;;		None
  4139 ;; Auto vars:     Size  Location     Type
  4140 ;;		None
  4141 ;; Return value:  Size  Location     Type
  4142 ;;                  1    wreg      void 
  4143 ;; Registers used:
  4144 ;;		wreg, status,2, status,0, pclath, cstack
  4145 ;; Tracked objects:
  4146 ;;		On entry : 0/0
  4147 ;;		On exit  : 0/0
  4148 ;;		Unchanged: 0/0
  4149 ;; Data sizes:     COMMON   BANK0   BANK1   BANK2   BANK3   BANK4   BANK5   BANK6   BANK7   BANK8   BANK9  BANK10  BANK1
      +1  BANK12  BANK13  BANK14  BANK15  BANK16  BANK17  BANK18  BANK19  BANK20  BANK21  BANK22  BANK23  BANK24  BANK25  BANK2
      +6  BANK27  BANK28  BANK29  BANK30  BANK31  BANK32  BANK33  BANK34  BANK35  BANK36  BANK37  BANK38  BANK39  BANK40  BANK4
      +1  BANK42  BANK43  BANK44  BANK45  BANK46  BANK47  BANK48  BANK49  BANK50
  4150 ;;      Params:         0       0       0       0       0       0       0       0       0       0       0       0       
      +0       0       0       0       0       0       0       0       0       0       0       0       0       0       0       
      +0       0       0       0       0       0       0       0       0       0       0       0       0       0       0       
      +0       0       0       0       0       0       0       0       0       0
  4151 ;;      Locals:         0       0       0       0       0       0       0       0       0       0       0       0       
      +0       0       0       0       0       0       0       0       0       0       0       0       0       0       0       
      +0       0       0       0       0       0       0       0       0       0       0       0       0       0       0       
      +0       0       0       0       0       0       0       0       0       0
  4152 ;;      Temps:          0       0       0       0       0       0       0       0       0       0       0       0       
      +0       0       0       0       0       0       0       0       0       0       0       0       0       0       0       
      +0       0       0       0       0       0       0       0       0       0       0       0       0       0       0       
      +0       0       0       0       0       0       0       0       0       0
  4153 ;;      Totals:         0       0       0       0       0       0       0       0       0       0       0       0       
      +0       0       0       0       0       0       0       0       0       0       0       0       0       0       0       
      +0       0       0       0       0       0       0       0       0       0       0       0       0       0       0       
      +0       0       0       0       0       0       0       0       0       0
  4154 ;;Total ram usage:        0 bytes
  4155 ;; Hardware stack levels used: 1
  4156 ;; Hardware stack levels required when called: 2
  4157 ;; This function calls:
  4158 ;;		_lcdWriteCtrlWord
  4159 ;; This function is called by:
  4160 ;;		_initLCD
  4161 ;; This function uses a non-reentrant model
  4162 ;;
  4163                           
  4164     0287                     _lcdCtrl_FunctionSet:	
  4165                           ;psect for function _lcdCtrl_FunctionSet
  4166                           
  4167     0287                     l1229:	
  4168                           ;incstack = 0
  4169                           ; Regs used in _lcdCtrl_FunctionSet: [wreg+status,2+status,0+pclath+cstack]
  4170                           
  4171                           
  4172                           ;lcd.c: 82:     lcdWriteCtrlWord(0b00101000);
  4173     0287  3028               	movlw	40
  4174     0288  3182  22EF  3182   	fcall	_lcdWriteCtrlWord
  4175     028B                     l174:
  4176     028B  0008               	return
  4177     028C                     __end_of_lcdCtrl_FunctionSet:
  4178                           
  4179                           	psect	text6
  4180     0282                     __ptext6:	
  4181 ;; *************** function _lcdCtrl_ClearDisplay *****************
  4182 ;; Defined at:
  4183 ;;		line 97 in file "lcd.c"
  4184 ;; Parameters:    Size  Location     Type
  4185 ;;		None
  4186 ;; Auto vars:     Size  Location     Type
  4187 ;;		None
  4188 ;; Return value:  Size  Location     Type
  4189 ;;                  1    wreg      void 
  4190 ;; Registers used:
  4191 ;;		wreg, status,2, status,0, pclath, cstack
  4192 ;; Tracked objects:
  4193 ;;		On entry : 0/0
  4194 ;;		On exit  : 0/0
  4195 ;;		Unchanged: 0/0
  4196 ;; Data sizes:     COMMON   BANK0   BANK1   BANK2   BANK3   BANK4   BANK5   BANK6   BANK7   BANK8   BANK9  BANK10  BANK1
      +1  BANK12  BANK13  BANK14  BANK15  BANK16  BANK17  BANK18  BANK19  BANK20  BANK21  BANK22  BANK23  BANK24  BANK25  BANK2
      +6  BANK27  BANK28  BANK29  BANK30  BANK31  BANK32  BANK33  BANK34  BANK35  BANK36  BANK37  BANK38  BANK39  BANK40  BANK4
      +1  BANK42  BANK43  BANK44  BANK45  BANK46  BANK47  BANK48  BANK49  BANK50
  4197 ;;      Params:         0       0       0       0       0       0       0       0       0       0       0       0       
      +0       0       0       0       0       0       0       0       0       0       0       0       0       0       0       
      +0       0       0       0       0       0       0       0       0       0       0       0       0       0       0       
      +0       0       0       0       0       0       0       0       0       0
  4198 ;;      Locals:         0       0       0       0       0       0       0       0       0       0       0       0       
      +0       0       0       0       0       0       0       0       0       0       0       0       0       0       0       
      +0       0       0       0       0       0       0       0       0       0       0       0       0       0       0       
      +0       0       0       0       0       0       0       0       0       0
  4199 ;;      Temps:          0       0       0       0       0       0       0       0       0       0       0       0       
      +0       0       0       0       0       0       0       0       0       0       0       0       0       0       0       
      +0       0       0       0       0       0       0       0       0       0       0       0       0       0       0       
      +0       0       0       0       0       0       0       0       0       0
  4200 ;;      Totals:         0       0       0       0       0       0       0       0       0       0       0       0       
      +0       0       0       0       0       0       0       0       0       0       0       0       0       0       0       
      +0       0       0       0       0       0       0       0       0       0       0       0       0       0       0       
      +0       0       0       0       0       0       0       0       0       0
  4201 ;;Total ram usage:        0 bytes
  4202 ;; Hardware stack levels used: 1
  4203 ;; Hardware stack levels required when called: 2
  4204 ;; This function calls:
  4205 ;;		_lcdWriteCtrlWord
  4206 ;; This function is called by:
  4207 ;;		_initLCD
  4208 ;; This function uses a non-reentrant model
  4209 ;;
  4210                           
  4211     0282                     _lcdCtrl_ClearDisplay:	
  4212                           ;psect for function _lcdCtrl_ClearDisplay
  4213                           
  4214     0282                     l1245:	
  4215                           ;incstack = 0
  4216                           ; Regs used in _lcdCtrl_ClearDisplay: [wreg+status,2+status,0+pclath+cstack]
  4217                           
  4218                           
  4219                           ;lcd.c: 99:     lcdWriteCtrlWord(0b00000001);
  4220     0282  3001               	movlw	1
  4221     0283  3182  22EF  3182   	fcall	_lcdWriteCtrlWord
  4222     0286                     l185:
  4223     0286  0008               	return
  4224     0287                     __end_of_lcdCtrl_ClearDisplay:
  4225                           
  4226                           	psect	text7
  4227     0297                     __ptext7:	
  4228 ;; *************** function _initADC *****************
  4229 ;; Defined at:
  4230 ;;		line 12 in file "adc.c"
  4231 ;; Parameters:    Size  Location     Type
  4232 ;;		None
  4233 ;; Auto vars:     Size  Location     Type
  4234 ;;		None
  4235 ;; Return value:  Size  Location     Type
  4236 ;;                  1    wreg      void 
  4237 ;; Registers used:
  4238 ;;		wreg, status,2
  4239 ;; Tracked objects:
  4240 ;;		On entry : 0/0
  4241 ;;		On exit  : 0/0
  4242 ;;		Unchanged: 0/0
  4243 ;; Data sizes:     COMMON   BANK0   BANK1   BANK2   BANK3   BANK4   BANK5   BANK6   BANK7   BANK8   BANK9  BANK10  BANK1
      +1  BANK12  BANK13  BANK14  BANK15  BANK16  BANK17  BANK18  BANK19  BANK20  BANK21  BANK22  BANK23  BANK24  BANK25  BANK2
      +6  BANK27  BANK28  BANK29  BANK30  BANK31  BANK32  BANK33  BANK34  BANK35  BANK36  BANK37  BANK38  BANK39  BANK40  BANK4
      +1  BANK42  BANK43  BANK44  BANK45  BANK46  BANK47  BANK48  BANK49  BANK50
  4244 ;;      Params:         0       0       0       0       0       0       0       0       0       0       0       0       
      +0       0       0       0       0       0       0       0       0       0       0       0       0       0       0       
      +0       0       0       0       0       0       0       0       0       0       0       0       0       0       0       
      +0       0       0       0       0       0       0       0       0       0
  4245 ;;      Locals:         0       0       0       0       0       0       0       0       0       0       0       0       
      +0       0       0       0       0       0       0       0       0       0       0       0       0       0       0       
      +0       0       0       0       0       0       0       0       0       0       0       0       0       0       0       
      +0       0       0       0       0       0       0       0       0       0
  4246 ;;      Temps:          0       0       0       0       0       0       0       0       0       0       0       0       
      +0       0       0       0       0       0       0       0       0       0       0       0       0       0       0       
      +0       0       0       0       0       0       0       0       0       0       0       0       0       0       0       
      +0       0       0       0       0       0       0       0       0       0
  4247 ;;      Totals:         0       0       0       0       0       0       0       0       0       0       0       0       
      +0       0       0       0       0       0       0       0       0       0       0       0       0       0       0       
      +0       0       0       0       0       0       0       0       0       0       0       0       0       0       0       
      +0       0       0       0       0       0       0       0       0       0
  4248 ;;Total ram usage:        0 bytes
  4249 ;; Hardware stack levels used: 1
  4250 ;; This function calls:
  4251 ;;		Nothing
  4252 ;; This function is called by:
  4253 ;;		_main
  4254 ;; This function uses a non-reentrant model
  4255 ;;
  4256                           
  4257     0297                     _initADC:	
  4258                           ;psect for function _initADC
  4259                           
  4260     0297                     l1391:	
  4261                           ;incstack = 0
  4262                           ; Regs used in _initADC: [wreg+status,2]
  4263                           
  4264                           
  4265                           ;adc.c: 14:     ADREF = 0b00000000;
  4266     0297  0141               	movlb	1	; select bank1
  4267     0298  019A               	clrf	26	;volatile
  4268     0299                     l1393:
  4269                           
  4270                           ;adc.c: 15:     ADCLK = 0b00000011;
  4271     0299  3003               	movlw	3
  4272     029A  0098               	movwf	24	;volatile
  4273     029B                     l1395:
  4274                           
  4275                           ;adc.c: 16:     ADACQ = 0b00000000;
  4276     029B  019D               	clrf	29	;volatile
  4277                           
  4278                           ;adc.c: 17:     ADCON0 = 0b10000100;
  4279     029C  3084               	movlw	132
  4280     029D  0093               	movwf	19	;volatile
  4281     029E                     l21:
  4282     029E  0008               	return
  4283     029F                     __end_of_initADC:
  4284                           
  4285                           	psect	text8
  4286     053B                     __ptext8:	
  4287 ;; *************** function _dspTaskW_OnLCD *****************
  4288 ;; Defined at:
  4289 ;;		line 49 in file "dspTask.c"
  4290 ;; Parameters:    Size  Location     Type
  4291 ;;		None
  4292 ;; Auto vars:     Size  Location     Type
  4293 ;;  count           2   10[BANK0 ] int 
  4294 ;;  Wlvl            2    4[BANK0 ] unsigned int 
  4295 ;;  dig3            1    9[BANK0 ] unsigned char 
  4296 ;;  dig2            1    8[BANK0 ] unsigned char 
  4297 ;;  dig1            1    7[BANK0 ] unsigned char 
  4298 ;;  dig0            1    6[BANK0 ] unsigned char 
  4299 ;; Return value:  Size  Location     Type
  4300 ;;                  1    wreg      void 
  4301 ;; Registers used:
  4302 ;;		wreg, status,2, status,0, pclath, cstack
  4303 ;; Tracked objects:
  4304 ;;		On entry : 0/0
  4305 ;;		On exit  : 0/0
  4306 ;;		Unchanged: 0/0
  4307 ;; Data sizes:     COMMON   BANK0   BANK1   BANK2   BANK3   BANK4   BANK5   BANK6   BANK7   BANK8   BANK9  BANK10  BANK1
      +1  BANK12  BANK13  BANK14  BANK15  BANK16  BANK17  BANK18  BANK19  BANK20  BANK21  BANK22  BANK23  BANK24  BANK25  BANK2
      +6  BANK27  BANK28  BANK29  BANK30  BANK31  BANK32  BANK33  BANK34  BANK35  BANK36  BANK37  BANK38  BANK39  BANK40  BANK4
      +1  BANK42  BANK43  BANK44  BANK45  BANK46  BANK47  BANK48  BANK49  BANK50
  4308 ;;      Params:         0       0       0       0       0       0       0       0       0       0       0       0       
      +0       0       0       0       0       0       0       0       0       0       0       0       0       0       0       
      +0       0       0       0       0       0       0       0       0       0       0       0       0       0       0       
      +0       0       0       0       0       0       0       0       0       0
  4309 ;;      Locals:         0       8       0       0       0       0       0       0       0       0       0       0       
      +0       0       0       0       0       0       0       0       0       0       0       0       0       0       0       
      +0       0       0       0       0       0       0       0       0       0       0       0       0       0       0       
      +0       0       0       0       0       0       0       0       0       0
  4310 ;;      Temps:          0       2       0       0       0       0       0       0       0       0       0       0       
      +0       0       0       0       0       0       0       0       0       0       0       0       0       0       0       
      +0       0       0       0       0       0       0       0       0       0       0       0       0       0       0       
      +0       0       0       0       0       0       0       0       0       0
  4311 ;;      Totals:         0      10       0       0       0       0       0       0       0       0       0       0       
      +0       0       0       0       0       0       0       0       0       0       0       0       0       0       0       
      +0       0       0       0       0       0       0       0       0       0       0       0       0       0       0       
      +0       0       0       0       0       0       0       0       0       0
  4312 ;;Total ram usage:       10 bytes
  4313 ;; Hardware stack levels used: 1
  4314 ;; Hardware stack levels required when called: 3
  4315 ;; This function calls:
  4316 ;;		___awdiv
  4317 ;;		___awmod
  4318 ;;		___lwdiv
  4319 ;;		_adc_GetWConversion
  4320 ;;		_lcdCtrl_SetPos
  4321 ;;		_lcdWriteDspData
  4322 ;; This function is called by:
  4323 ;;		_main
  4324 ;; This function uses a non-reentrant model
  4325 ;;
  4326                           
  4327     053B                     _dspTaskW_OnLCD:	
  4328                           ;psect for function _dspTaskW_OnLCD
  4329                           
  4330     053B                     l1439:	
  4331                           ;incstack = 0
  4332                           ; Regs used in _dspTaskW_OnLCD: [wreg+status,2+status,0+pclath+cstack]
  4333                           
  4334                           
  4335                           ;dspTask.c: 51:     unsigned int Wlvl;;dspTask.c: 52:     int count;;dspTask.c: 53:     
      +                          unsigned char dig0, dig1, dig2, dig3;;dspTask.c: 54:     if(adc_GetWConversion()== adc_G
      +                          etWConversion()) {
  4336     053B  3182  22C5  3185   	fcall	_adc_GetWConversion
  4337     053E  0870               	movf	?_adc_GetWConversion,w
  4338     053F  0140               	movlb	0	; select bank0
  4339     0540  00A2               	movwf	??_dspTaskW_OnLCD
  4340     0541  0871               	movf	?_adc_GetWConversion+1,w
  4341     0542  00A3               	movwf	??_dspTaskW_OnLCD+1
  4342     0543  3182  22C5  3185   	fcall	_adc_GetWConversion
  4343     0546  0871               	movf	?_adc_GetWConversion+1,w
  4344     0547  0140               	movlb	0	; select bank0
  4345     0548  0623               	xorwf	??_dspTaskW_OnLCD+1,w
  4346     0549  1D03               	skipz
  4347     054A  2D4D               	goto	u1085
  4348     054B  0870               	movf	?_adc_GetWConversion,w
  4349     054C  0622               	xorwf	??_dspTaskW_OnLCD,w
  4350     054D                     u1085:
  4351     054D  1D03               	skipz
  4352     054E  2D50               	goto	u1081
  4353     054F  2D51               	goto	u1080
  4354     0550                     u1081:
  4355     0550  2DE0               	goto	l136
  4356     0551                     u1080:
  4357     0551                     l1441:
  4358                           
  4359                           ;dspTask.c: 56:         Wlvl = adc_GetWConversion();
  4360     0551  3182  22C5  3185   	fcall	_adc_GetWConversion
  4361     0554  0871               	movf	?_adc_GetWConversion+1,w
  4362     0555  0140               	movlb	0	; select bank0
  4363     0556  00A5               	movwf	dspTaskW_OnLCD@Wlvl+1
  4364     0557  0870               	movf	?_adc_GetWConversion,w
  4365     0558  00A4               	movwf	dspTaskW_OnLCD@Wlvl
  4366     0559                     l1443:
  4367                           
  4368                           ;dspTask.c: 57:         count = Wlvl/10;
  4369     0559  300A               	movlw	10
  4370     055A  00F6               	movwf	___lwdiv@divisor
  4371     055B  3000               	movlw	0
  4372     055C  00F7               	movwf	___lwdiv@divisor+1
  4373     055D  0825               	movf	dspTaskW_OnLCD@Wlvl+1,w
  4374     055E  00F9               	movwf	___lwdiv@dividend+1
  4375     055F  0824               	movf	dspTaskW_OnLCD@Wlvl,w
  4376     0560  00F8               	movwf	___lwdiv@dividend
  4377     0561  3184  240A  3185   	fcall	___lwdiv
  4378     0564  0877               	movf	?___lwdiv+1,w
  4379     0565  0140               	movlb	0	; select bank0
  4380     0566  00AB               	movwf	dspTaskW_OnLCD@count+1
  4381     0567  0876               	movf	?___lwdiv,w
  4382     0568  00AA               	movwf	dspTaskW_OnLCD@count
  4383     0569                     l1445:
  4384                           
  4385                           ;dspTask.c: 58:         dig0 = count%10;
  4386     0569  300A               	movlw	10
  4387     056A  00F9               	movwf	___awmod@divisor
  4388     056B  3000               	movlw	0
  4389     056C  00FA               	movwf	___awmod@divisor+1
  4390     056D  082B               	movf	dspTaskW_OnLCD@count+1,w
  4391     056E  00FC               	movwf	___awmod@dividend+1
  4392     056F  082A               	movf	dspTaskW_OnLCD@count,w
  4393     0570  00FB               	movwf	___awmod@dividend
  4394     0571  3184  2488  3185   	fcall	___awmod
  4395     0574  0879               	movf	?___awmod,w
  4396     0575  0140               	movlb	0	; select bank0
  4397     0576  00A6               	movwf	dspTaskW_OnLCD@dig0
  4398     0577                     l1447:
  4399                           
  4400                           ;dspTask.c: 59:         dig1 = (count/10)%10;
  4401     0577  300A               	movlw	10
  4402     0578  00F9               	movwf	___awmod@divisor
  4403     0579  3000               	movlw	0
  4404     057A  00FA               	movwf	___awmod@divisor+1
  4405     057B  300A               	movlw	10
  4406     057C  00F0               	movwf	___awdiv@divisor
  4407     057D  3000               	movlw	0
  4408     057E  00F1               	movwf	___awdiv@divisor+1
  4409     057F  082B               	movf	dspTaskW_OnLCD@count+1,w
  4410     0580  00F3               	movwf	___awdiv@dividend+1
  4411     0581  082A               	movf	dspTaskW_OnLCD@count,w
  4412     0582  00F2               	movwf	___awdiv@dividend
  4413     0583  3184  24DC  3185   	fcall	___awdiv
  4414     0586  0871               	movf	?___awdiv+1,w
  4415     0587  00FC               	movwf	___awmod@dividend+1
  4416     0588  0870               	movf	?___awdiv,w
  4417     0589  00FB               	movwf	___awmod@dividend
  4418     058A  3184  2488  3185   	fcall	___awmod
  4419     058D  0879               	movf	?___awmod,w
  4420     058E  0140               	movlb	0	; select bank0
  4421     058F  00A7               	movwf	dspTaskW_OnLCD@dig1
  4422     0590                     l1449:
  4423                           
  4424                           ;dspTask.c: 60:         dig2 = (count/100)%10;
  4425     0590  300A               	movlw	10
  4426     0591  00F9               	movwf	___awmod@divisor
  4427     0592  3000               	movlw	0
  4428     0593  00FA               	movwf	___awmod@divisor+1
  4429     0594  3064               	movlw	100
  4430     0595  00F0               	movwf	___awdiv@divisor
  4431     0596  3000               	movlw	0
  4432     0597  00F1               	movwf	___awdiv@divisor+1
  4433     0598  082B               	movf	dspTaskW_OnLCD@count+1,w
  4434     0599  00F3               	movwf	___awdiv@dividend+1
  4435     059A  082A               	movf	dspTaskW_OnLCD@count,w
  4436     059B  00F2               	movwf	___awdiv@dividend
  4437     059C  3184  24DC  3185   	fcall	___awdiv
  4438     059F  0871               	movf	?___awdiv+1,w
  4439     05A0  00FC               	movwf	___awmod@dividend+1
  4440     05A1  0870               	movf	?___awdiv,w
  4441     05A2  00FB               	movwf	___awmod@dividend
  4442     05A3  3184  2488  3185   	fcall	___awmod
  4443     05A6  0879               	movf	?___awmod,w
  4444     05A7  0140               	movlb	0	; select bank0
  4445     05A8  00A8               	movwf	dspTaskW_OnLCD@dig2
  4446     05A9                     l1451:
  4447                           
  4448                           ;dspTask.c: 61:         dig3 = (count/1000)%10;
  4449     05A9  300A               	movlw	10
  4450     05AA  00F9               	movwf	___awmod@divisor
  4451     05AB  3000               	movlw	0
  4452     05AC  00FA               	movwf	___awmod@divisor+1
  4453     05AD  30E8               	movlw	232
  4454     05AE  00F0               	movwf	___awdiv@divisor
  4455     05AF  3003               	movlw	3
  4456     05B0  00F1               	movwf	___awdiv@divisor+1
  4457     05B1  082B               	movf	dspTaskW_OnLCD@count+1,w
  4458     05B2  00F3               	movwf	___awdiv@dividend+1
  4459     05B3  082A               	movf	dspTaskW_OnLCD@count,w
  4460     05B4  00F2               	movwf	___awdiv@dividend
  4461     05B5  3184  24DC  3185   	fcall	___awdiv
  4462     05B8  0871               	movf	?___awdiv+1,w
  4463     05B9  00FC               	movwf	___awmod@dividend+1
  4464     05BA  0870               	movf	?___awdiv,w
  4465     05BB  00FB               	movwf	___awmod@dividend
  4466     05BC  3184  2488  3185   	fcall	___awmod
  4467     05BF  0879               	movf	?___awmod,w
  4468     05C0  0140               	movlb	0	; select bank0
  4469     05C1  00A9               	movwf	dspTaskW_OnLCD@dig3
  4470     05C2                     l1453:
  4471                           
  4472                           ;dspTask.c: 62:         lcdCtrl_SetPos(2, 8);
  4473     05C2  3008               	movlw	8
  4474     05C3  00F7               	movwf	lcdCtrl_SetPos@col
  4475     05C4  3002               	movlw	2
  4476     05C5  3182  22B2  3185   	fcall	_lcdCtrl_SetPos
  4477     05C8                     l1455:
  4478                           
  4479                           ;dspTask.c: 63:         lcdWriteDspData(dig3 + 0x30);
  4480     05C8  0140               	movlb	0	; select bank0
  4481     05C9  0829               	movf	dspTaskW_OnLCD@dig3,w
  4482     05CA  3E30               	addlw	48
  4483     05CB  3183  2307  3185   	fcall	_lcdWriteDspData
  4484     05CE                     l1457:
  4485                           
  4486                           ;dspTask.c: 64:         lcdWriteDspData(dig2 + 0x30);
  4487     05CE  0140               	movlb	0	; select bank0
  4488     05CF  0828               	movf	dspTaskW_OnLCD@dig2,w
  4489     05D0  3E30               	addlw	48
  4490     05D1  3183  2307  3185   	fcall	_lcdWriteDspData
  4491     05D4                     l1459:
  4492                           
  4493                           ;dspTask.c: 65:         lcdWriteDspData(dig1 + 0x30);
  4494     05D4  0140               	movlb	0	; select bank0
  4495     05D5  0827               	movf	dspTaskW_OnLCD@dig1,w
  4496     05D6  3E30               	addlw	48
  4497     05D7  3183  2307  3185   	fcall	_lcdWriteDspData
  4498     05DA                     l1461:
  4499                           
  4500                           ;dspTask.c: 66:         lcdWriteDspData(dig0 + 0x30);
  4501     05DA  0140               	movlb	0	; select bank0
  4502     05DB  0826               	movf	dspTaskW_OnLCD@dig0,w
  4503     05DC  3E30               	addlw	48
  4504     05DD  3183  2307  3185   	fcall	_lcdWriteDspData
  4505     05E0                     l136:
  4506     05E0  0008               	return
  4507     05E1                     __end_of_dspTaskW_OnLCD:
  4508                           
  4509                           	psect	text9
  4510     02C5                     __ptext9:	
  4511 ;; *************** function _adc_GetWConversion *****************
  4512 ;; Defined at:
  4513 ;;		line 32 in file "adc.c"
  4514 ;; Parameters:    Size  Location     Type
  4515 ;;		None
  4516 ;; Auto vars:     Size  Location     Type
  4517 ;;  result          2    2[COMMON] unsigned int 
  4518 ;; Return value:  Size  Location     Type
  4519 ;;                  2    0[COMMON] unsigned int 
  4520 ;; Registers used:
  4521 ;;		wreg
  4522 ;; Tracked objects:
  4523 ;;		On entry : 0/0
  4524 ;;		On exit  : 0/0
  4525 ;;		Unchanged: 0/0
  4526 ;; Data sizes:     COMMON   BANK0   BANK1   BANK2   BANK3   BANK4   BANK5   BANK6   BANK7   BANK8   BANK9  BANK10  BANK1
      +1  BANK12  BANK13  BANK14  BANK15  BANK16  BANK17  BANK18  BANK19  BANK20  BANK21  BANK22  BANK23  BANK24  BANK25  BANK2
      +6  BANK27  BANK28  BANK29  BANK30  BANK31  BANK32  BANK33  BANK34  BANK35  BANK36  BANK37  BANK38  BANK39  BANK40  BANK4
      +1  BANK42  BANK43  BANK44  BANK45  BANK46  BANK47  BANK48  BANK49  BANK50
  4527 ;;      Params:         2       0       0       0       0       0       0       0       0       0       0       0       
      +0       0       0       0       0       0       0       0       0       0       0       0       0       0       0       
      +0       0       0       0       0       0       0       0       0       0       0       0       0       0       0       
      +0       0       0       0       0       0       0       0       0       0
  4528 ;;      Locals:         2       0       0       0       0       0       0       0       0       0       0       0       
      +0       0       0       0       0       0       0       0       0       0       0       0       0       0       0       
      +0       0       0       0       0       0       0       0       0       0       0       0       0       0       0       
      +0       0       0       0       0       0       0       0       0       0
  4529 ;;      Temps:          0       0       0       0       0       0       0       0       0       0       0       0       
      +0       0       0       0       0       0       0       0       0       0       0       0       0       0       0       
      +0       0       0       0       0       0       0       0       0       0       0       0       0       0       0       
      +0       0       0       0       0       0       0       0       0       0
  4530 ;;      Totals:         4       0       0       0       0       0       0       0       0       0       0       0       
      +0       0       0       0       0       0       0       0       0       0       0       0       0       0       0       
      +0       0       0       0       0       0       0       0       0       0       0       0       0       0       0       
      +0       0       0       0       0       0       0       0       0       0
  4531 ;;Total ram usage:        4 bytes
  4532 ;; Hardware stack levels used: 1
  4533 ;; This function calls:
  4534 ;;		Nothing
  4535 ;; This function is called by:
  4536 ;;		_dspTaskW_OnLCD
  4537 ;; This function uses a non-reentrant model
  4538 ;;
  4539                           
  4540     02C5                     _adc_GetWConversion:	
  4541                           ;psect for function _adc_GetWConversion
  4542                           
  4543     02C5                     l1201:	
  4544                           ;incstack = 0
  4545                           ; Regs used in _adc_GetWConversion: [wreg]
  4546                           
  4547                           
  4548                           ;adc.c: 34:     unsigned int result;;adc.c: 35:     ADPCH = 0b00000011;
  4549     02C5  3003               	movlw	3
  4550     02C6  0141               	movlb	1	; select bank1
  4551     02C7  009E               	movwf	30	;volatile
  4552     02C8                     l1203:
  4553                           
  4554                           ;adc.c: 36:     _delay((unsigned long)((2)*(4000000/4000000.0)));
  4555     02C8  3200               	nop2	;2 cycle nop
  4556     02C9                     l1205:
  4557                           
  4558                           ;adc.c: 37:     ADCON0bits.ADGO = 1;
  4559     02C9  0141               	movlb	1	; select bank1
  4560     02CA  1413               	bsf	19,0	;volatile
  4561     02CB                     l30:	
  4562                           ;adc.c: 38:     while(ADCON0bits.ADGO == 1);
  4563                           
  4564     02CB  1813               	btfsc	19,0	;volatile
  4565     02CC  2ACE               	goto	u661
  4566     02CD  2ACF               	goto	u660
  4567     02CE                     u661:
  4568     02CE  2ACB               	goto	l30
  4569     02CF                     u660:
  4570     02CF                     l1207:
  4571                           
  4572                           ;adc.c: 39:     result = ADRESH*256+ADRESL ;
  4573     02CF  080D               	movf	13,w	;volatile
  4574     02D0  00F3               	movwf	adc_GetWConversion@result+1
  4575     02D1  080C               	movf	12,w	;volatile
  4576     02D2  00F2               	movwf	adc_GetWConversion@result
  4577                           
  4578                           ;adc.c: 40:     return (result);
  4579     02D3  0873               	movf	adc_GetWConversion@result+1,w
  4580     02D4  00F1               	movwf	?_adc_GetWConversion+1
  4581     02D5  0872               	movf	adc_GetWConversion@result,w
  4582     02D6  00F0               	movwf	?_adc_GetWConversion
  4583     02D7                     l33:
  4584     02D7  0008               	return
  4585     02D8                     __end_of_adc_GetWConversion:
  4586                           
  4587                           	psect	text10
  4588     0488                     __ptext10:	
  4589 ;; *************** function ___awmod *****************
  4590 ;; Defined at:
  4591 ;;		line 5 in file "C:\Program Files\Microchip\xc8\v2.41\pic\sources\c99\common\awmod.c"
  4592 ;; Parameters:    Size  Location     Type
  4593 ;;  divisor         2    9[COMMON] int 
  4594 ;;  dividend        2   11[COMMON] int 
  4595 ;; Auto vars:     Size  Location     Type
  4596 ;;  sign            1    1[BANK0 ] unsigned char 
  4597 ;;  counter         1    0[BANK0 ] unsigned char 
  4598 ;; Return value:  Size  Location     Type
  4599 ;;                  2    9[COMMON] int 
  4600 ;; Registers used:
  4601 ;;		wreg, status,2, status,0
  4602 ;; Tracked objects:
  4603 ;;		On entry : 0/0
  4604 ;;		On exit  : 0/0
  4605 ;;		Unchanged: 0/0
  4606 ;; Data sizes:     COMMON   BANK0   BANK1   BANK2   BANK3   BANK4   BANK5   BANK6   BANK7   BANK8   BANK9  BANK10  BANK1
      +1  BANK12  BANK13  BANK14  BANK15  BANK16  BANK17  BANK18  BANK19  BANK20  BANK21  BANK22  BANK23  BANK24  BANK25  BANK2
      +6  BANK27  BANK28  BANK29  BANK30  BANK31  BANK32  BANK33  BANK34  BANK35  BANK36  BANK37  BANK38  BANK39  BANK40  BANK4
      +1  BANK42  BANK43  BANK44  BANK45  BANK46  BANK47  BANK48  BANK49  BANK50
  4607 ;;      Params:         4       0       0       0       0       0       0       0       0       0       0       0       
      +0       0       0       0       0       0       0       0       0       0       0       0       0       0       0       
      +0       0       0       0       0       0       0       0       0       0       0       0       0       0       0       
      +0       0       0       0       0       0       0       0       0       0
  4608 ;;      Locals:         0       2       0       0       0       0       0       0       0       0       0       0       
      +0       0       0       0       0       0       0       0       0       0       0       0       0       0       0       
      +0       0       0       0       0       0       0       0       0       0       0       0       0       0       0       
      +0       0       0       0       0       0       0       0       0       0
  4609 ;;      Temps:          1       0       0       0       0       0       0       0       0       0       0       0       
      +0       0       0       0       0       0       0       0       0       0       0       0       0       0       0       
      +0       0       0       0       0       0       0       0       0       0       0       0       0       0       0       
      +0       0       0       0       0       0       0       0       0       0
  4610 ;;      Totals:         5       2       0       0       0       0       0       0       0       0       0       0       
      +0       0       0       0       0       0       0       0       0       0       0       0       0       0       0       
      +0       0       0       0       0       0       0       0       0       0       0       0       0       0       0       
      +0       0       0       0       0       0       0       0       0       0
  4611 ;;Total ram usage:        7 bytes
  4612 ;; Hardware stack levels used: 1
  4613 ;; This function calls:
  4614 ;;		Nothing
  4615 ;; This function is called by:
  4616 ;;		_dspTaskW_OnLCD
  4617 ;; This function uses a non-reentrant model
  4618 ;;
  4619                           
  4620     0488                     ___awmod:	
  4621                           ;psect for function ___awmod
  4622                           
  4623     0488                     l1305:	
  4624                           ;incstack = 0
  4625                           ; Regs used in ___awmod: [wreg+status,2+status,0]
  4626                           
  4627     0488  0140               	movlb	0	; select bank0
  4628     0489  01A1               	clrf	___awmod@sign
  4629     048A                     l1307:
  4630     048A  1FFC               	btfss	___awmod@dividend+1,7
  4631     048B  2C8D               	goto	u851
  4632     048C  2C8E               	goto	u850
  4633     048D                     u851:
  4634     048D  2C95               	goto	l1313
  4635     048E                     u850:
  4636     048E                     l1309:
  4637     048E  09FB               	comf	___awmod@dividend,f
  4638     048F  09FC               	comf	___awmod@dividend+1,f
  4639     0490  0AFB               	incf	___awmod@dividend,f
  4640     0491  1903               	skipnz
  4641     0492  0AFC               	incf	___awmod@dividend+1,f
  4642     0493                     l1311:
  4643     0493  01A1               	clrf	___awmod@sign
  4644     0494  0AA1               	incf	___awmod@sign,f
  4645     0495                     l1313:
  4646     0495  1FFA               	btfss	___awmod@divisor+1,7
  4647     0496  2C98               	goto	u861
  4648     0497  2C99               	goto	u860
  4649     0498                     u861:
  4650     0498  2C9E               	goto	l1317
  4651     0499                     u860:
  4652     0499                     l1315:
  4653     0499  09F9               	comf	___awmod@divisor,f
  4654     049A  09FA               	comf	___awmod@divisor+1,f
  4655     049B  0AF9               	incf	___awmod@divisor,f
  4656     049C  1903               	skipnz
  4657     049D  0AFA               	incf	___awmod@divisor+1,f
  4658     049E                     l1317:
  4659     049E  0879               	movf	___awmod@divisor,w
  4660     049F  047A               	iorwf	___awmod@divisor+1,w
  4661     04A0  1903               	btfsc	3,2
  4662     04A1  2CA3               	goto	u871
  4663     04A2  2CA4               	goto	u870
  4664     04A3                     u871:
  4665     04A3  2CCD               	goto	l1335
  4666     04A4                     u870:
  4667     04A4                     l1319:
  4668     04A4  01A0               	clrf	___awmod@counter
  4669     04A5  0AA0               	incf	___awmod@counter,f
  4670     04A6  2CB0               	goto	l1325
  4671     04A7                     l1321:
  4672     04A7  3001               	movlw	1
  4673     04A8                     u885:
  4674     04A8  35F9               	lslf	___awmod@divisor,f
  4675     04A9  0DFA               	rlf	___awmod@divisor+1,f
  4676     04AA  0B89               	decfsz	9,f
  4677     04AB  2CA8               	goto	u885
  4678     04AC                     l1323:
  4679     04AC  3001               	movlw	1
  4680     04AD  00FD               	movwf	??___awmod
  4681     04AE  087D               	movf	??___awmod,w
  4682     04AF  07A0               	addwf	___awmod@counter,f
  4683     04B0                     l1325:
  4684     04B0  1FFA               	btfss	___awmod@divisor+1,7
  4685     04B1  2CB3               	goto	u891
  4686     04B2  2CB4               	goto	u890
  4687     04B3                     u891:
  4688     04B3  2CA7               	goto	l1321
  4689     04B4                     u890:
  4690     04B4                     l1327:
  4691     04B4  087A               	movf	___awmod@divisor+1,w
  4692     04B5  027C               	subwf	___awmod@dividend+1,w
  4693     04B6  1D03               	skipz
  4694     04B7  2CBA               	goto	u905
  4695     04B8  0879               	movf	___awmod@divisor,w
  4696     04B9  027B               	subwf	___awmod@dividend,w
  4697     04BA                     u905:
  4698     04BA  1C03               	skipc
  4699     04BB  2CBD               	goto	u901
  4700     04BC  2CBE               	goto	u900
  4701     04BD                     u901:
  4702     04BD  2CC2               	goto	l1331
  4703     04BE                     u900:
  4704     04BE                     l1329:
  4705     04BE  0879               	movf	___awmod@divisor,w
  4706     04BF  02FB               	subwf	___awmod@dividend,f
  4707     04C0  087A               	movf	___awmod@divisor+1,w
  4708     04C1  3BFC               	subwfb	___awmod@dividend+1,f
  4709     04C2                     l1331:
  4710     04C2  3001               	movlw	1
  4711     04C3                     u915:
  4712     04C3  36FA               	lsrf	___awmod@divisor+1,f
  4713     04C4  0CF9               	rrf	___awmod@divisor,f
  4714     04C5  0B89               	decfsz	9,f
  4715     04C6  2CC3               	goto	u915
  4716     04C7                     l1333:
  4717     04C7  3001               	movlw	1
  4718     04C8  02A0               	subwf	___awmod@counter,f
  4719     04C9  1D03               	btfss	3,2
  4720     04CA  2CCC               	goto	u921
  4721     04CB  2CCD               	goto	u920
  4722     04CC                     u921:
  4723     04CC  2CB4               	goto	l1327
  4724     04CD                     u920:
  4725     04CD                     l1335:
  4726     04CD  0821               	movf	___awmod@sign,w
  4727     04CE  1903               	btfsc	3,2
  4728     04CF  2CD1               	goto	u931
  4729     04D0  2CD2               	goto	u930
  4730     04D1                     u931:
  4731     04D1  2CD7               	goto	l1339
  4732     04D2                     u930:
  4733     04D2                     l1337:
  4734     04D2  09FB               	comf	___awmod@dividend,f
  4735     04D3  09FC               	comf	___awmod@dividend+1,f
  4736     04D4  0AFB               	incf	___awmod@dividend,f
  4737     04D5  1903               	skipnz
  4738     04D6  0AFC               	incf	___awmod@dividend+1,f
  4739     04D7                     l1339:
  4740     04D7  087C               	movf	___awmod@dividend+1,w
  4741     04D8  00FA               	movwf	?___awmod+1
  4742     04D9  087B               	movf	___awmod@dividend,w
  4743     04DA  00F9               	movwf	?___awmod
  4744     04DB                     l503:
  4745     04DB  0008               	return
  4746     04DC                     __end_of___awmod:
  4747                           
  4748                           	psect	text11
  4749     04DC                     __ptext11:	
  4750 ;; *************** function ___awdiv *****************
  4751 ;; Defined at:
  4752 ;;		line 5 in file "C:\Program Files\Microchip\xc8\v2.41\pic\sources\c99\common\awdiv.c"
  4753 ;; Parameters:    Size  Location     Type
  4754 ;;  divisor         2    0[COMMON] int 
  4755 ;;  dividend        2    2[COMMON] int 
  4756 ;; Auto vars:     Size  Location     Type
  4757 ;;  quotient        2    7[COMMON] int 
  4758 ;;  sign            1    6[COMMON] unsigned char 
  4759 ;;  counter         1    5[COMMON] unsigned char 
  4760 ;; Return value:  Size  Location     Type
  4761 ;;                  2    0[COMMON] int 
  4762 ;; Registers used:
  4763 ;;		wreg, status,2, status,0
  4764 ;; Tracked objects:
  4765 ;;		On entry : 0/0
  4766 ;;		On exit  : 0/0
  4767 ;;		Unchanged: 0/0
  4768 ;; Data sizes:     COMMON   BANK0   BANK1   BANK2   BANK3   BANK4   BANK5   BANK6   BANK7   BANK8   BANK9  BANK10  BANK1
      +1  BANK12  BANK13  BANK14  BANK15  BANK16  BANK17  BANK18  BANK19  BANK20  BANK21  BANK22  BANK23  BANK24  BANK25  BANK2
      +6  BANK27  BANK28  BANK29  BANK30  BANK31  BANK32  BANK33  BANK34  BANK35  BANK36  BANK37  BANK38  BANK39  BANK40  BANK4
      +1  BANK42  BANK43  BANK44  BANK45  BANK46  BANK47  BANK48  BANK49  BANK50
  4769 ;;      Params:         4       0       0       0       0       0       0       0       0       0       0       0       
      +0       0       0       0       0       0       0       0       0       0       0       0       0       0       0       
      +0       0       0       0       0       0       0       0       0       0       0       0       0       0       0       
      +0       0       0       0       0       0       0       0       0       0
  4770 ;;      Locals:         4       0       0       0       0       0       0       0       0       0       0       0       
      +0       0       0       0       0       0       0       0       0       0       0       0       0       0       0       
      +0       0       0       0       0       0       0       0       0       0       0       0       0       0       0       
      +0       0       0       0       0       0       0       0       0       0
  4771 ;;      Temps:          1       0       0       0       0       0       0       0       0       0       0       0       
      +0       0       0       0       0       0       0       0       0       0       0       0       0       0       0       
      +0       0       0       0       0       0       0       0       0       0       0       0       0       0       0       
      +0       0       0       0       0       0       0       0       0       0
  4772 ;;      Totals:         9       0       0       0       0       0       0       0       0       0       0       0       
      +0       0       0       0       0       0       0       0       0       0       0       0       0       0       0       
      +0       0       0       0       0       0       0       0       0       0       0       0       0       0       0       
      +0       0       0       0       0       0       0       0       0       0
  4773 ;;Total ram usage:        9 bytes
  4774 ;; Hardware stack levels used: 1
  4775 ;; This function calls:
  4776 ;;		Nothing
  4777 ;; This function is called by:
  4778 ;;		_dspTaskW_OnLCD
  4779 ;; This function uses a non-reentrant model
  4780 ;;
  4781                           
  4782     04DC                     ___awdiv:	
  4783                           ;psect for function ___awdiv
  4784                           
  4785     04DC                     l1261:	
  4786                           ;incstack = 0
  4787                           ; Regs used in ___awdiv: [wreg+status,2+status,0]
  4788                           
  4789     04DC  01F6               	clrf	___awdiv@sign
  4790     04DD                     l1263:
  4791     04DD  1FF1               	btfss	___awdiv@divisor+1,7
  4792     04DE  2CE0               	goto	u751
  4793     04DF  2CE1               	goto	u750
  4794     04E0                     u751:
  4795     04E0  2CE8               	goto	l1269
  4796     04E1                     u750:
  4797     04E1                     l1265:
  4798     04E1  09F0               	comf	___awdiv@divisor,f
  4799     04E2  09F1               	comf	___awdiv@divisor+1,f
  4800     04E3  0AF0               	incf	___awdiv@divisor,f
  4801     04E4  1903               	skipnz
  4802     04E5  0AF1               	incf	___awdiv@divisor+1,f
  4803     04E6                     l1267:
  4804     04E6  01F6               	clrf	___awdiv@sign
  4805     04E7  0AF6               	incf	___awdiv@sign,f
  4806     04E8                     l1269:
  4807     04E8  1FF3               	btfss	___awdiv@dividend+1,7
  4808     04E9  2CEB               	goto	u761
  4809     04EA  2CEC               	goto	u760
  4810     04EB                     u761:
  4811     04EB  2CF5               	goto	l1275
  4812     04EC                     u760:
  4813     04EC                     l1271:
  4814     04EC  09F2               	comf	___awdiv@dividend,f
  4815     04ED  09F3               	comf	___awdiv@dividend+1,f
  4816     04EE  0AF2               	incf	___awdiv@dividend,f
  4817     04EF  1903               	skipnz
  4818     04F0  0AF3               	incf	___awdiv@dividend+1,f
  4819     04F1                     l1273:
  4820     04F1  3001               	movlw	1
  4821     04F2  00F4               	movwf	??___awdiv
  4822     04F3  0874               	movf	??___awdiv,w
  4823     04F4  06F6               	xorwf	___awdiv@sign,f
  4824     04F5                     l1275:
  4825     04F5  01F7               	clrf	___awdiv@quotient
  4826     04F6  01F8               	clrf	___awdiv@quotient+1
  4827     04F7                     l1277:
  4828     04F7  0870               	movf	___awdiv@divisor,w
  4829     04F8  0471               	iorwf	___awdiv@divisor+1,w
  4830     04F9  1903               	btfsc	3,2
  4831     04FA  2CFC               	goto	u771
  4832     04FB  2CFD               	goto	u770
  4833     04FC                     u771:
  4834     04FC  2D2C               	goto	l1297
  4835     04FD                     u770:
  4836     04FD                     l1279:
  4837     04FD  01F5               	clrf	___awdiv@counter
  4838     04FE  0AF5               	incf	___awdiv@counter,f
  4839     04FF  2D09               	goto	l1285
  4840     0500                     l1281:
  4841     0500  3001               	movlw	1
  4842     0501                     u785:
  4843     0501  35F0               	lslf	___awdiv@divisor,f
  4844     0502  0DF1               	rlf	___awdiv@divisor+1,f
  4845     0503  0B89               	decfsz	9,f
  4846     0504  2D01               	goto	u785
  4847     0505                     l1283:
  4848     0505  3001               	movlw	1
  4849     0506  00F4               	movwf	??___awdiv
  4850     0507  0874               	movf	??___awdiv,w
  4851     0508  07F5               	addwf	___awdiv@counter,f
  4852     0509                     l1285:
  4853     0509  1FF1               	btfss	___awdiv@divisor+1,7
  4854     050A  2D0C               	goto	u791
  4855     050B  2D0D               	goto	u790
  4856     050C                     u791:
  4857     050C  2D00               	goto	l1281
  4858     050D                     u790:
  4859     050D                     l1287:
  4860     050D  3001               	movlw	1
  4861     050E                     u805:
  4862     050E  35F7               	lslf	___awdiv@quotient,f
  4863     050F  0DF8               	rlf	___awdiv@quotient+1,f
  4864     0510  0B89               	decfsz	9,f
  4865     0511  2D0E               	goto	u805
  4866     0512  0871               	movf	___awdiv@divisor+1,w
  4867     0513  0273               	subwf	___awdiv@dividend+1,w
  4868     0514  1D03               	skipz
  4869     0515  2D18               	goto	u815
  4870     0516  0870               	movf	___awdiv@divisor,w
  4871     0517  0272               	subwf	___awdiv@dividend,w
  4872     0518                     u815:
  4873     0518  1C03               	skipc
  4874     0519  2D1B               	goto	u811
  4875     051A  2D1C               	goto	u810
  4876     051B                     u811:
  4877     051B  2D21               	goto	l1293
  4878     051C                     u810:
  4879     051C                     l1289:
  4880     051C  0870               	movf	___awdiv@divisor,w
  4881     051D  02F2               	subwf	___awdiv@dividend,f
  4882     051E  0871               	movf	___awdiv@divisor+1,w
  4883     051F  3BF3               	subwfb	___awdiv@dividend+1,f
  4884     0520                     l1291:
  4885     0520  1477               	bsf	___awdiv@quotient,0
  4886     0521                     l1293:
  4887     0521  3001               	movlw	1
  4888     0522                     u825:
  4889     0522  36F1               	lsrf	___awdiv@divisor+1,f
  4890     0523  0CF0               	rrf	___awdiv@divisor,f
  4891     0524  0B89               	decfsz	9,f
  4892     0525  2D22               	goto	u825
  4893     0526                     l1295:
  4894     0526  3001               	movlw	1
  4895     0527  02F5               	subwf	___awdiv@counter,f
  4896     0528  1D03               	btfss	3,2
  4897     0529  2D2B               	goto	u831
  4898     052A  2D2C               	goto	u830
  4899     052B                     u831:
  4900     052B  2D0D               	goto	l1287
  4901     052C                     u830:
  4902     052C                     l1297:
  4903     052C  0876               	movf	___awdiv@sign,w
  4904     052D  1903               	btfsc	3,2
  4905     052E  2D30               	goto	u841
  4906     052F  2D31               	goto	u840
  4907     0530                     u841:
  4908     0530  2D36               	goto	l1301
  4909     0531                     u840:
  4910     0531                     l1299:
  4911     0531  09F7               	comf	___awdiv@quotient,f
  4912     0532  09F8               	comf	___awdiv@quotient+1,f
  4913     0533  0AF7               	incf	___awdiv@quotient,f
  4914     0534  1903               	skipnz
  4915     0535  0AF8               	incf	___awdiv@quotient+1,f
  4916     0536                     l1301:
  4917     0536  0878               	movf	___awdiv@quotient+1,w
  4918     0537  00F1               	movwf	?___awdiv+1
  4919     0538  0877               	movf	___awdiv@quotient,w
  4920     0539  00F0               	movwf	?___awdiv
  4921     053A                     l490:
  4922     053A  0008               	return
  4923     053B                     __end_of___awdiv:
  4924                           
  4925                           	psect	text12
  4926     05E1                     __ptext12:	
  4927 ;; *************** function _dspTaskT_OnLCD *****************
  4928 ;; Defined at:
  4929 ;;		line 25 in file "dspTask.c"
  4930 ;; Parameters:    Size  Location     Type
  4931 ;;		None
  4932 ;; Auto vars:     Size  Location     Type
  4933 ;;  count           2   14[BANK0 ] unsigned int 
  4934 ;;  temp            2    8[BANK0 ] unsigned int 
  4935 ;;  dig3            1   13[BANK0 ] unsigned char 
  4936 ;;  dig2            1   12[BANK0 ] unsigned char 
  4937 ;;  dig1            1   11[BANK0 ] unsigned char 
  4938 ;;  dig0            1   10[BANK0 ] unsigned char 
  4939 ;; Return value:  Size  Location     Type
  4940 ;;                  1    wreg      void 
  4941 ;; Registers used:
  4942 ;;		wreg, status,2, status,0, pclath, cstack
  4943 ;; Tracked objects:
  4944 ;;		On entry : 0/0
  4945 ;;		On exit  : 0/0
  4946 ;;		Unchanged: 0/0
  4947 ;; Data sizes:     COMMON   BANK0   BANK1   BANK2   BANK3   BANK4   BANK5   BANK6   BANK7   BANK8   BANK9  BANK10  BANK1
      +1  BANK12  BANK13  BANK14  BANK15  BANK16  BANK17  BANK18  BANK19  BANK20  BANK21  BANK22  BANK23  BANK24  BANK25  BANK2
      +6  BANK27  BANK28  BANK29  BANK30  BANK31  BANK32  BANK33  BANK34  BANK35  BANK36  BANK37  BANK38  BANK39  BANK40  BANK4
      +1  BANK42  BANK43  BANK44  BANK45  BANK46  BANK47  BANK48  BANK49  BANK50
  4948 ;;      Params:         0       0       0       0       0       0       0       0       0       0       0       0       
      +0       0       0       0       0       0       0       0       0       0       0       0       0       0       0       
      +0       0       0       0       0       0       0       0       0       0       0       0       0       0       0       
      +0       0       0       0       0       0       0       0       0       0
  4949 ;;      Locals:         0       8       0       0       0       0       0       0       0       0       0       0       
      +0       0       0       0       0       0       0       0       0       0       0       0       0       0       0       
      +0       0       0       0       0       0       0       0       0       0       0       0       0       0       0       
      +0       0       0       0       0       0       0       0       0       0
  4950 ;;      Temps:          0       2       0       0       0       0       0       0       0       0       0       0       
      +0       0       0       0       0       0       0       0       0       0       0       0       0       0       0       
      +0       0       0       0       0       0       0       0       0       0       0       0       0       0       0       
      +0       0       0       0       0       0       0       0       0       0
  4951 ;;      Totals:         0      10       0       0       0       0       0       0       0       0       0       0       
      +0       0       0       0       0       0       0       0       0       0       0       0       0       0       0       
      +0       0       0       0       0       0       0       0       0       0       0       0       0       0       0       
      +0       0       0       0       0       0       0       0       0       0
  4952 ;;Total ram usage:       10 bytes
  4953 ;; Hardware stack levels used: 1
  4954 ;; Hardware stack levels required when called: 3
  4955 ;; This function calls:
  4956 ;;		___lwdiv
  4957 ;;		___lwmod
  4958 ;;		___wmul
  4959 ;;		_adc_GetTConversion
  4960 ;;		_lcdCtrl_SetPos
  4961 ;;		_lcdWriteDspData
  4962 ;; This function is called by:
  4963 ;;		_main
  4964 ;; This function uses a non-reentrant model
  4965 ;;
  4966                           
  4967     05E1                     _dspTaskT_OnLCD:	
  4968                           ;psect for function _dspTaskT_OnLCD
  4969                           
  4970     05E1                     l1413:	
  4971                           ;incstack = 0
  4972                           ; Regs used in _dspTaskT_OnLCD: [wreg+status,2+status,0+pclath+cstack]
  4973                           
  4974                           
  4975                           ;dspTask.c: 27:     unsigned int temp;;dspTask.c: 28:     unsigned int count;;dspTask.c:
      +                           29:     unsigned char dig0, dig1, dig2, dig3;;dspTask.c: 30:     if(adc_GetTConversion(
      +                          )==adc_GetTConversion()) {
  4976     05E1  3182  229F  3185   	fcall	_adc_GetTConversion
  4977     05E4  0870               	movf	?_adc_GetTConversion,w
  4978     05E5  0140               	movlb	0	; select bank0
  4979     05E6  00A6               	movwf	??_dspTaskT_OnLCD
  4980     05E7  0871               	movf	?_adc_GetTConversion+1,w
  4981     05E8  00A7               	movwf	??_dspTaskT_OnLCD+1
  4982     05E9  3182  229F  3185   	fcall	_adc_GetTConversion
  4983     05EC  0871               	movf	?_adc_GetTConversion+1,w
  4984     05ED  0140               	movlb	0	; select bank0
  4985     05EE  0627               	xorwf	??_dspTaskT_OnLCD+1,w
  4986     05EF  1D03               	skipz
  4987     05F0  2DF3               	goto	u1075
  4988     05F1  0870               	movf	?_adc_GetTConversion,w
  4989     05F2  0626               	xorwf	??_dspTaskT_OnLCD,w
  4990     05F3                     u1075:
  4991     05F3  1D03               	skipz
  4992     05F4  2DF6               	goto	u1071
  4993     05F5  2DF7               	goto	u1070
  4994     05F6                     u1071:
  4995     05F6  2EA4               	goto	l132
  4996     05F7                     u1070:
  4997     05F7                     l1415:
  4998                           
  4999                           ;dspTask.c: 32:         temp = adc_GetTConversion();
  5000     05F7  3182  229F  3185   	fcall	_adc_GetTConversion
  5001     05FA  0871               	movf	?_adc_GetTConversion+1,w
  5002     05FB  0140               	movlb	0	; select bank0
  5003     05FC  00A9               	movwf	dspTaskT_OnLCD@temp+1
  5004     05FD  0870               	movf	?_adc_GetTConversion,w
  5005     05FE  00A8               	movwf	dspTaskT_OnLCD@temp
  5006     05FF                     l1417:
  5007                           
  5008                           ;dspTask.c: 33:         count =(temp * 500) / 1023;
  5009     05FF  30FF               	movlw	255
  5010     0600  00F6               	movwf	___lwdiv@divisor
  5011     0601  3003               	movlw	3
  5012     0602  00F7               	movwf	___lwdiv@divisor+1
  5013     0603  0829               	movf	dspTaskT_OnLCD@temp+1,w
  5014     0604  00F1               	movwf	___wmul@multiplier+1
  5015     0605  0828               	movf	dspTaskT_OnLCD@temp,w
  5016     0606  00F0               	movwf	___wmul@multiplier
  5017     0607  30F4               	movlw	244
  5018     0608  00F2               	movwf	___wmul@multiplicand
  5019     0609  3001               	movlw	1
  5020     060A  00F3               	movwf	___wmul@multiplicand+1
  5021     060B  3183  2339  3185   	fcall	___wmul
  5022     060E  0871               	movf	?___wmul+1,w
  5023     060F  00F9               	movwf	___lwdiv@dividend+1
  5024     0610  0870               	movf	?___wmul,w
  5025     0611  00F8               	movwf	___lwdiv@dividend
  5026     0612  3184  240A  3185   	fcall	___lwdiv
  5027     0615  0877               	movf	?___lwdiv+1,w
  5028     0616  0140               	movlb	0	; select bank0
  5029     0617  00AF               	movwf	dspTaskT_OnLCD@count+1
  5030     0618  0876               	movf	?___lwdiv,w
  5031     0619  00AE               	movwf	dspTaskT_OnLCD@count
  5032     061A                     l1419:
  5033                           
  5034                           ;dspTask.c: 34:         count = count * 100;
  5035     061A  082F               	movf	dspTaskT_OnLCD@count+1,w
  5036     061B  00F1               	movwf	___wmul@multiplier+1
  5037     061C  082E               	movf	dspTaskT_OnLCD@count,w
  5038     061D  00F0               	movwf	___wmul@multiplier
  5039     061E  3064               	movlw	100
  5040     061F  00F2               	movwf	___wmul@multiplicand
  5041     0620  3000               	movlw	0
  5042     0621  00F3               	movwf	___wmul@multiplicand+1
  5043     0622  3183  2339  3185   	fcall	___wmul
  5044     0625  0871               	movf	?___wmul+1,w
  5045     0626  0140               	movlb	0	; select bank0
  5046     0627  00AF               	movwf	dspTaskT_OnLCD@count+1
  5047     0628  0870               	movf	?___wmul,w
  5048     0629  00AE               	movwf	dspTaskT_OnLCD@count
  5049     062A                     l1421:
  5050                           
  5051                           ;dspTask.c: 35:         dig0 = count%10;
  5052     062A  300A               	movlw	10
  5053     062B  00A0               	movwf	___lwmod@divisor
  5054     062C  3000               	movlw	0
  5055     062D  00A1               	movwf	___lwmod@divisor+1
  5056     062E  082F               	movf	dspTaskT_OnLCD@count+1,w
  5057     062F  00A3               	movwf	___lwmod@dividend+1
  5058     0630  082E               	movf	dspTaskT_OnLCD@count,w
  5059     0631  00A2               	movwf	___lwmod@dividend
  5060     0632  3183  23D5  3185   	fcall	___lwmod
  5061     0635  0140               	movlb	0	; select bank0
  5062     0636  0820               	movf	?___lwmod,w
  5063     0637  00AA               	movwf	dspTaskT_OnLCD@dig0
  5064     0638                     l1423:
  5065                           
  5066                           ;dspTask.c: 36:         dig1 = (count/10)%10;
  5067     0638  300A               	movlw	10
  5068     0639  00A0               	movwf	___lwmod@divisor
  5069     063A  3000               	movlw	0
  5070     063B  00A1               	movwf	___lwmod@divisor+1
  5071     063C  300A               	movlw	10
  5072     063D  00F6               	movwf	___lwdiv@divisor
  5073     063E  3000               	movlw	0
  5074     063F  00F7               	movwf	___lwdiv@divisor+1
  5075     0640  082F               	movf	dspTaskT_OnLCD@count+1,w
  5076     0641  00F9               	movwf	___lwdiv@dividend+1
  5077     0642  082E               	movf	dspTaskT_OnLCD@count,w
  5078     0643  00F8               	movwf	___lwdiv@dividend
  5079     0644  3184  240A  3185   	fcall	___lwdiv
  5080     0647  0877               	movf	?___lwdiv+1,w
  5081     0648  0140               	movlb	0	; select bank0
  5082     0649  00A3               	movwf	___lwmod@dividend+1
  5083     064A  0876               	movf	?___lwdiv,w
  5084     064B  00A2               	movwf	___lwmod@dividend
  5085     064C  3183  23D5  3185   	fcall	___lwmod
  5086     064F  0140               	movlb	0	; select bank0
  5087     0650  0820               	movf	?___lwmod,w
  5088     0651  00AB               	movwf	dspTaskT_OnLCD@dig1
  5089     0652                     l1425:
  5090                           
  5091                           ;dspTask.c: 37:         dig2 = (count/100)%10;
  5092     0652  300A               	movlw	10
  5093     0653  00A0               	movwf	___lwmod@divisor
  5094     0654  3000               	movlw	0
  5095     0655  00A1               	movwf	___lwmod@divisor+1
  5096     0656  3064               	movlw	100
  5097     0657  00F6               	movwf	___lwdiv@divisor
  5098     0658  3000               	movlw	0
  5099     0659  00F7               	movwf	___lwdiv@divisor+1
  5100     065A  082F               	movf	dspTaskT_OnLCD@count+1,w
  5101     065B  00F9               	movwf	___lwdiv@dividend+1
  5102     065C  082E               	movf	dspTaskT_OnLCD@count,w
  5103     065D  00F8               	movwf	___lwdiv@dividend
  5104     065E  3184  240A  3185   	fcall	___lwdiv
  5105     0661  0877               	movf	?___lwdiv+1,w
  5106     0662  0140               	movlb	0	; select bank0
  5107     0663  00A3               	movwf	___lwmod@dividend+1
  5108     0664  0876               	movf	?___lwdiv,w
  5109     0665  00A2               	movwf	___lwmod@dividend
  5110     0666  3183  23D5  3185   	fcall	___lwmod
  5111     0669  0140               	movlb	0	; select bank0
  5112     066A  0820               	movf	?___lwmod,w
  5113     066B  00AC               	movwf	dspTaskT_OnLCD@dig2
  5114     066C                     l1427:
  5115                           
  5116                           ;dspTask.c: 38:         dig3 = (count/1000)%10;
  5117     066C  300A               	movlw	10
  5118     066D  00A0               	movwf	___lwmod@divisor
  5119     066E  3000               	movlw	0
  5120     066F  00A1               	movwf	___lwmod@divisor+1
  5121     0670  30E8               	movlw	232
  5122     0671  00F6               	movwf	___lwdiv@divisor
  5123     0672  3003               	movlw	3
  5124     0673  00F7               	movwf	___lwdiv@divisor+1
  5125     0674  082F               	movf	dspTaskT_OnLCD@count+1,w
  5126     0675  00F9               	movwf	___lwdiv@dividend+1
  5127     0676  082E               	movf	dspTaskT_OnLCD@count,w
  5128     0677  00F8               	movwf	___lwdiv@dividend
  5129     0678  3184  240A  3185   	fcall	___lwdiv
  5130     067B  0877               	movf	?___lwdiv+1,w
  5131     067C  0140               	movlb	0	; select bank0
  5132     067D  00A3               	movwf	___lwmod@dividend+1
  5133     067E  0876               	movf	?___lwdiv,w
  5134     067F  00A2               	movwf	___lwmod@dividend
  5135     0680  3183  23D5  3185   	fcall	___lwmod
  5136     0683  0140               	movlb	0	; select bank0
  5137     0684  0820               	movf	?___lwmod,w
  5138     0685  00AD               	movwf	dspTaskT_OnLCD@dig3
  5139     0686                     l1429:
  5140                           
  5141                           ;dspTask.c: 39:         lcdCtrl_SetPos(2, 8);
  5142     0686  3008               	movlw	8
  5143     0687  00F7               	movwf	lcdCtrl_SetPos@col
  5144     0688  3002               	movlw	2
  5145     0689  3182  22B2  3185   	fcall	_lcdCtrl_SetPos
  5146     068C                     l1431:
  5147                           
  5148                           ;dspTask.c: 40:         lcdWriteDspData(dig3 + 0x30);
  5149     068C  0140               	movlb	0	; select bank0
  5150     068D  082D               	movf	dspTaskT_OnLCD@dig3,w
  5151     068E  3E30               	addlw	48
  5152     068F  3183  2307  3185   	fcall	_lcdWriteDspData
  5153     0692                     l1433:
  5154                           
  5155                           ;dspTask.c: 41:         lcdWriteDspData(dig2 + 0x30);
  5156     0692  0140               	movlb	0	; select bank0
  5157     0693  082C               	movf	dspTaskT_OnLCD@dig2,w
  5158     0694  3E30               	addlw	48
  5159     0695  3183  2307  3185   	fcall	_lcdWriteDspData
  5160     0698                     l1435:
  5161                           
  5162                           ;dspTask.c: 42:         lcdWriteDspData(dig1 + 0x30);
  5163     0698  0140               	movlb	0	; select bank0
  5164     0699  082B               	movf	dspTaskT_OnLCD@dig1,w
  5165     069A  3E30               	addlw	48
  5166     069B  3183  2307  3185   	fcall	_lcdWriteDspData
  5167     069E                     l1437:
  5168                           
  5169                           ;dspTask.c: 43:         lcdWriteDspData(dig0 + 0x30);
  5170     069E  0140               	movlb	0	; select bank0
  5171     069F  082A               	movf	dspTaskT_OnLCD@dig0,w
  5172     06A0  3E30               	addlw	48
  5173     06A1  3183  2307  3185   	fcall	_lcdWriteDspData
  5174     06A4                     l132:
  5175     06A4  0008               	return
  5176     06A5                     __end_of_dspTaskT_OnLCD:
  5177                           
  5178                           	psect	text13
  5179     0307                     __ptext13:	
  5180 ;; *************** function _lcdWriteDspData *****************
  5181 ;; Defined at:
  5182 ;;		line 46 in file "lcd.c"
  5183 ;; Parameters:    Size  Location     Type
  5184 ;;  x               1    wreg     unsigned char 
  5185 ;; Auto vars:     Size  Location     Type
  5186 ;;  x               1    6[COMMON] unsigned char 
  5187 ;;  lower_nibble    1    5[COMMON] unsigned char 
  5188 ;;  upper_nibble    1    4[COMMON] unsigned char 
  5189 ;; Return value:  Size  Location     Type
  5190 ;;                  1    wreg      void 
  5191 ;; Registers used:
  5192 ;;		wreg, status,2, status,0, pclath, cstack
  5193 ;; Tracked objects:
  5194 ;;		On entry : 0/0
  5195 ;;		On exit  : 0/0
  5196 ;;		Unchanged: 0/0
  5197 ;; Data sizes:     COMMON   BANK0   BANK1   BANK2   BANK3   BANK4   BANK5   BANK6   BANK7   BANK8   BANK9  BANK10  BANK1
      +1  BANK12  BANK13  BANK14  BANK15  BANK16  BANK17  BANK18  BANK19  BANK20  BANK21  BANK22  BANK23  BANK24  BANK25  BANK2
      +6  BANK27  BANK28  BANK29  BANK30  BANK31  BANK32  BANK33  BANK34  BANK35  BANK36  BANK37  BANK38  BANK39  BANK40  BANK4
      +1  BANK42  BANK43  BANK44  BANK45  BANK46  BANK47  BANK48  BANK49  BANK50
  5198 ;;      Params:         0       0       0       0       0       0       0       0       0       0       0       0       
      +0       0       0       0       0       0       0       0       0       0       0       0       0       0       0       
      +0       0       0       0       0       0       0       0       0       0       0       0       0       0       0       
      +0       0       0       0       0       0       0       0       0       0
  5199 ;;      Locals:         3       0       0       0       0       0       0       0       0       0       0       0       
      +0       0       0       0       0       0       0       0       0       0       0       0       0       0       0       
      +0       0       0       0       0       0       0       0       0       0       0       0       0       0       0       
      +0       0       0       0       0       0       0       0       0       0
  5200 ;;      Temps:          1       0       0       0       0       0       0       0       0       0       0       0       
      +0       0       0       0       0       0       0       0       0       0       0       0       0       0       0       
      +0       0       0       0       0       0       0       0       0       0       0       0       0       0       0       
      +0       0       0       0       0       0       0       0       0       0
  5201 ;;      Totals:         4       0       0       0       0       0       0       0       0       0       0       0       
      +0       0       0       0       0       0       0       0       0       0       0       0       0       0       0       
      +0       0       0       0       0       0       0       0       0       0       0       0       0       0       0       
      +0       0       0       0       0       0       0       0       0       0
  5202 ;;Total ram usage:        4 bytes
  5203 ;; Hardware stack levels used: 1
  5204 ;; Hardware stack levels required when called: 1
  5205 ;; This function calls:
  5206 ;;		_lcdWriteNibble
  5207 ;; This function is called by:
  5208 ;;		_main
  5209 ;;		_dspTaskT_OnLCD
  5210 ;;		_dspTaskW_OnLCD
  5211 ;; This function uses a non-reentrant model
  5212 ;;
  5213                           
  5214     0307                     _lcdWriteDspData:	
  5215                           ;psect for function _lcdWriteDspData
  5216                           
  5217                           
  5218                           ;incstack = 0
  5219                           ; Regs used in _lcdWriteDspData: [wreg+status,2+status,0+pclath+cstack]
  5220                           ;lcdWriteDspData@x stored from wreg
  5221     0307  00F6               	movwf	lcdWriteDspData@x
  5222     0308                     l1219:
  5223                           
  5224                           ;lcd.c: 46: void lcdWriteDspData(char x);lcd.c: 47: {;lcd.c: 48:     char upper_nibble, 
      +                          lower_nibble;;lcd.c: 49:     upper_nibble = (x & 0b11110000) >> 4;
  5225     0308  0876               	movf	lcdWriteDspData@x,w
  5226     0309  00F3               	movwf	??_lcdWriteDspData
  5227     030A  3004               	movlw	4
  5228     030B                     u685:
  5229     030B  36F3               	lsrf	??_lcdWriteDspData,f
  5230     030C  0B89               	decfsz	9,f
  5231     030D  2B0B               	goto	u685
  5232     030E  0873               	movf	??_lcdWriteDspData,w
  5233     030F  390F               	andlw	15
  5234     0310  00F4               	movwf	lcdWriteDspData@upper_nibble
  5235     0311                     l1221:
  5236                           
  5237                           ;lcd.c: 50:     lower_nibble = x & 0b00001111;
  5238     0311  0876               	movf	lcdWriteDspData@x,w
  5239     0312  390F               	andlw	15
  5240     0313  00F5               	movwf	lcdWriteDspData@lower_nibble
  5241     0314                     l1223:
  5242                           
  5243                           ;lcd.c: 51:     PORTEbits.RE1 = 1;
  5244     0314  0140               	movlb	0	; select bank0
  5245     0315  1490               	bsf	16,1	;volatile
  5246     0316                     l1225:
  5247                           
  5248                           ;lcd.c: 52:     lcdWriteNibble(upper_nibble);
  5249     0316  0874               	movf	lcdWriteDspData@upper_nibble,w
  5250     0317  3184  2446  3183   	fcall	_lcdWriteNibble
  5251     031A                     l1227:
  5252                           
  5253                           ;lcd.c: 53:     lcdWriteNibble(lower_nibble);
  5254     031A  0875               	movf	lcdWriteDspData@lower_nibble,w
  5255     031B  3184  2446  3183   	fcall	_lcdWriteNibble
  5256     031E                     l163:
  5257     031E  0008               	return
  5258     031F                     __end_of_lcdWriteDspData:
  5259                           
  5260                           	psect	text14
  5261     02B2                     __ptext14:	
  5262 ;; *************** function _lcdCtrl_SetPos *****************
  5263 ;; Defined at:
  5264 ;;		line 68 in file "lcd.c"
  5265 ;; Parameters:    Size  Location     Type
  5266 ;;  row             1    wreg     unsigned char 
  5267 ;;  col             1    7[COMMON] unsigned char 
  5268 ;; Auto vars:     Size  Location     Type
  5269 ;;  row             1    8[COMMON] unsigned char 
  5270 ;;  ramAddr         1    9[COMMON] unsigned char 
  5271 ;; Return value:  Size  Location     Type
  5272 ;;                  1    wreg      void 
  5273 ;; Registers used:
  5274 ;;		wreg, status,2, status,0, pclath, cstack
  5275 ;; Tracked objects:
  5276 ;;		On entry : 0/0
  5277 ;;		On exit  : 0/0
  5278 ;;		Unchanged: 0/0
  5279 ;; Data sizes:     COMMON   BANK0   BANK1   BANK2   BANK3   BANK4   BANK5   BANK6   BANK7   BANK8   BANK9  BANK10  BANK1
      +1  BANK12  BANK13  BANK14  BANK15  BANK16  BANK17  BANK18  BANK19  BANK20  BANK21  BANK22  BANK23  BANK24  BANK25  BANK2
      +6  BANK27  BANK28  BANK29  BANK30  BANK31  BANK32  BANK33  BANK34  BANK35  BANK36  BANK37  BANK38  BANK39  BANK40  BANK4
      +1  BANK42  BANK43  BANK44  BANK45  BANK46  BANK47  BANK48  BANK49  BANK50
  5280 ;;      Params:         1       0       0       0       0       0       0       0       0       0       0       0       
      +0       0       0       0       0       0       0       0       0       0       0       0       0       0       0       
      +0       0       0       0       0       0       0       0       0       0       0       0       0       0       0       
      +0       0       0       0       0       0       0       0       0       0
  5281 ;;      Locals:         2       0       0       0       0       0       0       0       0       0       0       0       
      +0       0       0       0       0       0       0       0       0       0       0       0       0       0       0       
      +0       0       0       0       0       0       0       0       0       0       0       0       0       0       0       
      +0       0       0       0       0       0       0       0       0       0
  5282 ;;      Temps:          0       0       0       0       0       0       0       0       0       0       0       0       
      +0       0       0       0       0       0       0       0       0       0       0       0       0       0       0       
      +0       0       0       0       0       0       0       0       0       0       0       0       0       0       0       
      +0       0       0       0       0       0       0       0       0       0
  5283 ;;      Totals:         3       0       0       0       0       0       0       0       0       0       0       0       
      +0       0       0       0       0       0       0       0       0       0       0       0       0       0       0       
      +0       0       0       0       0       0       0       0       0       0       0       0       0       0       0       
      +0       0       0       0       0       0       0       0       0       0
  5284 ;;Total ram usage:        3 bytes
  5285 ;; Hardware stack levels used: 1
  5286 ;; Hardware stack levels required when called: 2
  5287 ;; This function calls:
  5288 ;;		_lcdWriteCtrlWord
  5289 ;; This function is called by:
  5290 ;;		_main
  5291 ;;		_dspTaskT_OnLCD
  5292 ;;		_dspTaskW_OnLCD
  5293 ;; This function uses a non-reentrant model
  5294 ;;
  5295                           
  5296     02B2                     _lcdCtrl_SetPos:	
  5297                           ;psect for function _lcdCtrl_SetPos
  5298                           
  5299                           
  5300                           ;incstack = 0
  5301                           ; Regs used in _lcdCtrl_SetPos: [wreg+status,2+status,0+pclath+cstack]
  5302                           ;lcdCtrl_SetPos@row stored from wreg
  5303     02B2  00F8               	movwf	lcdCtrl_SetPos@row
  5304     02B3                     l1211:
  5305                           
  5306                           ;lcd.c: 68: void lcdCtrl_SetPos(unsigned char row, unsigned char col);lcd.c: 69: {;lcd.c
      +                          : 70:     unsigned char ramAddr;;lcd.c: 71:     if (row == 1)
  5307     02B3  0378               	decf	lcdCtrl_SetPos@row,w
  5308     02B4  1D03               	btfss	3,2
  5309     02B5  2AB7               	goto	u671
  5310     02B6  2AB8               	goto	u670
  5311     02B7                     u671:
  5312     02B7  2ABC               	goto	l1215
  5313     02B8                     u670:
  5314     02B8                     l1213:
  5315                           
  5316                           ;lcd.c: 72:         ramAddr = col - 1;
  5317     02B8  0877               	movf	lcdCtrl_SetPos@col,w
  5318     02B9  3EFF               	addlw	255
  5319     02BA  00F9               	movwf	lcdCtrl_SetPos@ramAddr
  5320     02BB  2ABF               	goto	l1217
  5321     02BC                     l1215:
  5322                           
  5323                           ;lcd.c: 74:         ramAddr = 0x40 + col - 1;
  5324     02BC  0877               	movf	lcdCtrl_SetPos@col,w
  5325     02BD  3E3F               	addlw	63
  5326     02BE  00F9               	movwf	lcdCtrl_SetPos@ramAddr
  5327     02BF                     l1217:
  5328                           
  5329                           ;lcd.c: 76:      lcdWriteCtrlWord(0x80 + ramAddr);
  5330     02BF  0879               	movf	lcdCtrl_SetPos@ramAddr,w
  5331     02C0  3E80               	addlw	128
  5332     02C1  3182  22EF  3182   	fcall	_lcdWriteCtrlWord
  5333     02C4                     l171:
  5334     02C4  0008               	return
  5335     02C5                     __end_of_lcdCtrl_SetPos:
  5336                           
  5337                           	psect	text15
  5338     02EF                     __ptext15:	
  5339 ;; *************** function _lcdWriteCtrlWord *****************
  5340 ;; Defined at:
  5341 ;;		line 38 in file "lcd.c"
  5342 ;; Parameters:    Size  Location     Type
  5343 ;;  x               1    wreg     unsigned char 
  5344 ;; Auto vars:     Size  Location     Type
  5345 ;;  x               1    6[COMMON] unsigned char 
  5346 ;;  lower_nibble    1    5[COMMON] unsigned char 
  5347 ;;  upper_nibble    1    4[COMMON] unsigned char 
  5348 ;; Return value:  Size  Location     Type
  5349 ;;                  1    wreg      void 
  5350 ;; Registers used:
  5351 ;;		wreg, status,2, status,0, pclath, cstack
  5352 ;; Tracked objects:
  5353 ;;		On entry : 0/0
  5354 ;;		On exit  : 0/0
  5355 ;;		Unchanged: 0/0
  5356 ;; Data sizes:     COMMON   BANK0   BANK1   BANK2   BANK3   BANK4   BANK5   BANK6   BANK7   BANK8   BANK9  BANK10  BANK1
      +1  BANK12  BANK13  BANK14  BANK15  BANK16  BANK17  BANK18  BANK19  BANK20  BANK21  BANK22  BANK23  BANK24  BANK25  BANK2
      +6  BANK27  BANK28  BANK29  BANK30  BANK31  BANK32  BANK33  BANK34  BANK35  BANK36  BANK37  BANK38  BANK39  BANK40  BANK4
      +1  BANK42  BANK43  BANK44  BANK45  BANK46  BANK47  BANK48  BANK49  BANK50
  5357 ;;      Params:         0       0       0       0       0       0       0       0       0       0       0       0       
      +0       0       0       0       0       0       0       0       0       0       0       0       0       0       0       
      +0       0       0       0       0       0       0       0       0       0       0       0       0       0       0       
      +0       0       0       0       0       0       0       0       0       0
  5358 ;;      Locals:         3       0       0       0       0       0       0       0       0       0       0       0       
      +0       0       0       0       0       0       0       0       0       0       0       0       0       0       0       
      +0       0       0       0       0       0       0       0       0       0       0       0       0       0       0       
      +0       0       0       0       0       0       0       0       0       0
  5359 ;;      Temps:          1       0       0       0       0       0       0       0       0       0       0       0       
      +0       0       0       0       0       0       0       0       0       0       0       0       0       0       0       
      +0       0       0       0       0       0       0       0       0       0       0       0       0       0       0       
      +0       0       0       0       0       0       0       0       0       0
  5360 ;;      Totals:         4       0       0       0       0       0       0       0       0       0       0       0       
      +0       0       0       0       0       0       0       0       0       0       0       0       0       0       0       
      +0       0       0       0       0       0       0       0       0       0       0       0       0       0       0       
      +0       0       0       0       0       0       0       0       0       0
  5361 ;;Total ram usage:        4 bytes
  5362 ;; Hardware stack levels used: 1
  5363 ;; Hardware stack levels required when called: 1
  5364 ;; This function calls:
  5365 ;;		_lcdWriteNibble
  5366 ;; This function is called by:
  5367 ;;		_initLCD
  5368 ;;		_lcdCtrl_SetPos
  5369 ;;		_lcdCtrl_FunctionSet
  5370 ;;		_lcdCtrl_OnOffDisplay
  5371 ;;		_lcdCtrl_SetEntryMode
  5372 ;;		_lcdCtrl_ClearDisplay
  5373 ;; This function uses a non-reentrant model
  5374 ;;
  5375                           
  5376     02EF                     _lcdWriteCtrlWord:	
  5377                           ;psect for function _lcdWriteCtrlWord
  5378                           
  5379                           
  5380                           ;incstack = 0
  5381                           ; Regs used in _lcdWriteCtrlWord: [wreg+status,2+status,0+pclath+cstack]
  5382                           ;lcdWriteCtrlWord@x stored from wreg
  5383     02EF  00F6               	movwf	lcdWriteCtrlWord@x
  5384     02F0                     l1181:
  5385                           
  5386                           ;lcd.c: 39:     char upper_nibble, lower_nibble;;lcd.c: 40:     upper_nibble = (x & 0b11
      +                          110000) >> 4;
  5387     02F0  0876               	movf	lcdWriteCtrlWord@x,w
  5388     02F1  00F3               	movwf	??_lcdWriteCtrlWord
  5389     02F2  3004               	movlw	4
  5390     02F3                     u645:
  5391     02F3  36F3               	lsrf	??_lcdWriteCtrlWord,f
  5392     02F4  0B89               	decfsz	9,f
  5393     02F5  2AF3               	goto	u645
  5394     02F6  0873               	movf	??_lcdWriteCtrlWord,w
  5395     02F7  390F               	andlw	15
  5396     02F8  00F4               	movwf	lcdWriteCtrlWord@upper_nibble
  5397     02F9                     l1183:
  5398                           
  5399                           ;lcd.c: 41:     lower_nibble = x & 0b00001111;
  5400     02F9  0876               	movf	lcdWriteCtrlWord@x,w
  5401     02FA  390F               	andlw	15
  5402     02FB  00F5               	movwf	lcdWriteCtrlWord@lower_nibble
  5403     02FC                     l1185:
  5404                           
  5405                           ;lcd.c: 42:     PORTEbits.RE1 = 0;
  5406     02FC  0140               	movlb	0	; select bank0
  5407     02FD  1090               	bcf	16,1	;volatile
  5408     02FE                     l1187:
  5409                           
  5410                           ;lcd.c: 43:     lcdWriteNibble(upper_nibble);
  5411     02FE  0874               	movf	lcdWriteCtrlWord@upper_nibble,w
  5412     02FF  3184  2446  3182   	fcall	_lcdWriteNibble
  5413     0302                     l1189:
  5414                           
  5415                           ;lcd.c: 44:     lcdWriteNibble(lower_nibble);
  5416     0302  0875               	movf	lcdWriteCtrlWord@lower_nibble,w
  5417     0303  3184  2446  3182   	fcall	_lcdWriteNibble
  5418     0306                     l160:
  5419     0306  0008               	return
  5420     0307                     __end_of_lcdWriteCtrlWord:
  5421                           
  5422                           	psect	text16
  5423     0446                     __ptext16:	
  5424 ;; *************** function _lcdWriteNibble *****************
  5425 ;; Defined at:
  5426 ;;		line 55 in file "lcd.c"
  5427 ;; Parameters:    Size  Location     Type
  5428 ;;  nibble          1    wreg     unsigned char 
  5429 ;; Auto vars:     Size  Location     Type
  5430 ;;  nibble          1    2[COMMON] unsigned char 
  5431 ;; Return value:  Size  Location     Type
  5432 ;;                  1    wreg      void 
  5433 ;; Registers used:
  5434 ;;		wreg, status,2, status,0
  5435 ;; Tracked objects:
  5436 ;;		On entry : 0/0
  5437 ;;		On exit  : 0/0
  5438 ;;		Unchanged: 0/0
  5439 ;; Data sizes:     COMMON   BANK0   BANK1   BANK2   BANK3   BANK4   BANK5   BANK6   BANK7   BANK8   BANK9  BANK10  BANK1
      +1  BANK12  BANK13  BANK14  BANK15  BANK16  BANK17  BANK18  BANK19  BANK20  BANK21  BANK22  BANK23  BANK24  BANK25  BANK2
      +6  BANK27  BANK28  BANK29  BANK30  BANK31  BANK32  BANK33  BANK34  BANK35  BANK36  BANK37  BANK38  BANK39  BANK40  BANK4
      +1  BANK42  BANK43  BANK44  BANK45  BANK46  BANK47  BANK48  BANK49  BANK50
  5440 ;;      Params:         0       0       0       0       0       0       0       0       0       0       0       0       
      +0       0       0       0       0       0       0       0       0       0       0       0       0       0       0       
      +0       0       0       0       0       0       0       0       0       0       0       0       0       0       0       
      +0       0       0       0       0       0       0       0       0       0
  5441 ;;      Locals:         1       0       0       0       0       0       0       0       0       0       0       0       
      +0       0       0       0       0       0       0       0       0       0       0       0       0       0       0       
      +0       0       0       0       0       0       0       0       0       0       0       0       0       0       0       
      +0       0       0       0       0       0       0       0       0       0
  5442 ;;      Temps:          2       0       0       0       0       0       0       0       0       0       0       0       
      +0       0       0       0       0       0       0       0       0       0       0       0       0       0       0       
      +0       0       0       0       0       0       0       0       0       0       0       0       0       0       0       
      +0       0       0       0       0       0       0       0       0       0
  5443 ;;      Totals:         3       0       0       0       0       0       0       0       0       0       0       0       
      +0       0       0       0       0       0       0       0       0       0       0       0       0       0       0       
      +0       0       0       0       0       0       0       0       0       0       0       0       0       0       0       
      +0       0       0       0       0       0       0       0       0       0
  5444 ;;Total ram usage:        3 bytes
  5445 ;; Hardware stack levels used: 1
  5446 ;; This function calls:
  5447 ;;		Nothing
  5448 ;; This function is called by:
  5449 ;;		_lcdWriteCtrlWord
  5450 ;;		_lcdWriteDspData
  5451 ;; This function uses a non-reentrant model
  5452 ;;
  5453                           
  5454     0446                     _lcdWriteNibble:	
  5455                           ;psect for function _lcdWriteNibble
  5456                           
  5457                           
  5458                           ;incstack = 0
  5459                           ; Regs used in _lcdWriteNibble: [wreg+status,2+status,0]
  5460                           ;lcdWriteNibble@nibble stored from wreg
  5461     0446  00F2               	movwf	lcdWriteNibble@nibble
  5462     0447                     l1171:
  5463                           
  5464                           ;lcd.c: 55: void lcdWriteNibble(char nibble);lcd.c: 56: {;lcd.c: 57:     PORTDbits.RD7 =
      +                           (nibble & 0b00001000) >> 3;
  5465     0447  0872               	movf	lcdWriteNibble@nibble,w
  5466     0448  00F0               	movwf	??_lcdWriteNibble
  5467     0449  3003               	movlw	3
  5468     044A                     u625:
  5469     044A  36F0               	lsrf	??_lcdWriteNibble,f
  5470     044B  0B89               	decfsz	9,f
  5471     044C  2C4A               	goto	u625
  5472     044D  0870               	movf	??_lcdWriteNibble,w
  5473     044E  3901               	andlw	1
  5474     044F  00F1               	movwf	??_lcdWriteNibble+1
  5475     0450  0CF1               	rrf	??_lcdWriteNibble+1,f
  5476     0451  0CF1               	rrf	??_lcdWriteNibble+1,f
  5477     0452  0140               	movlb	0	; select bank0
  5478     0453  080F               	movf	15,w	;volatile
  5479     0454  0671               	xorwf	??_lcdWriteNibble+1,w
  5480     0455  397F               	andlw	-129
  5481     0456  0671               	xorwf	??_lcdWriteNibble+1,w
  5482     0457  008F               	movwf	15	;volatile
  5483                           
  5484                           ;lcd.c: 58:     PORTDbits.RD6 = (nibble & 0b00000100) >> 2;
  5485     0458  0872               	movf	lcdWriteNibble@nibble,w
  5486     0459  00F0               	movwf	??_lcdWriteNibble
  5487     045A  3002               	movlw	2
  5488     045B                     u635:
  5489     045B  36F0               	lsrf	??_lcdWriteNibble,f
  5490     045C  0B89               	decfsz	9,f
  5491     045D  2C5B               	goto	u635
  5492     045E  0870               	movf	??_lcdWriteNibble,w
  5493     045F  3901               	andlw	1
  5494     0460  00F1               	movwf	??_lcdWriteNibble+1
  5495     0461  0EF1               	swapf	??_lcdWriteNibble+1,f
  5496     0462  0DF1               	rlf	??_lcdWriteNibble+1,f
  5497     0463  0DF1               	rlf	??_lcdWriteNibble+1,f
  5498     0464  080F               	movf	15,w	;volatile
  5499     0465  0671               	xorwf	??_lcdWriteNibble+1,w
  5500     0466  39BF               	andlw	-65
  5501     0467  0671               	xorwf	??_lcdWriteNibble+1,w
  5502     0468  008F               	movwf	15	;volatile
  5503                           
  5504                           ;lcd.c: 59:     PORTDbits.RD5 = (nibble & 0b00000010) >> 1;
  5505     0469  3672               	lsrf	lcdWriteNibble@nibble,w
  5506     046A  3901               	andlw	1
  5507     046B  00F0               	movwf	??_lcdWriteNibble
  5508     046C  0EF0               	swapf	??_lcdWriteNibble,f
  5509     046D  0DF0               	rlf	??_lcdWriteNibble,f
  5510     046E  080F               	movf	15,w	;volatile
  5511     046F  0670               	xorwf	??_lcdWriteNibble,w
  5512     0470  39DF               	andlw	-33
  5513     0471  0670               	xorwf	??_lcdWriteNibble,w
  5514     0472  008F               	movwf	15	;volatile
  5515                           
  5516                           ;lcd.c: 60:     PORTDbits.RD4 = (nibble & 0b00000001);
  5517     0473  0872               	movf	lcdWriteNibble@nibble,w
  5518     0474  3901               	andlw	1
  5519     0475  00F0               	movwf	??_lcdWriteNibble
  5520     0476  0EF0               	swapf	??_lcdWriteNibble,f
  5521     0477  080F               	movf	15,w	;volatile
  5522     0478  0670               	xorwf	??_lcdWriteNibble,w
  5523     0479  39EF               	andlw	-17
  5524     047A  0670               	xorwf	??_lcdWriteNibble,w
  5525     047B  008F               	movwf	15	;volatile
  5526     047C                     l1173:
  5527                           
  5528                           ;lcd.c: 61:     PORTEbits.RE0 = 1;
  5529     047C  1410               	bsf	16,0	;volatile
  5530     047D                     l1175:
  5531                           
  5532                           ;lcd.c: 62:     _delay((unsigned long)((1)*(4000000/4000.0)));
  5533     047D  30C8               	movlw	200
  5534     047E                     u1257:
  5535     047E  3200               	nop2
  5536     047F  0B89               	decfsz	9,f
  5537     0480  2C7E               	goto	u1257
  5538     0481                     l1177:
  5539                           
  5540                           ;lcd.c: 63:     PORTEbits.RE0 = 0;
  5541     0481  0140               	movlb	0	; select bank0
  5542     0482  1010               	bcf	16,0	;volatile
  5543     0483                     l1179:
  5544                           
  5545                           ;lcd.c: 64:     _delay((unsigned long)((1)*(4000000/4000.0)));
  5546     0483  30C8               	movlw	200
  5547     0484                     u1267:
  5548     0484  3200               	nop2
  5549     0485  0B89               	decfsz	9,f
  5550     0486  2C84               	goto	u1267
  5551     0487                     l166:
  5552     0487  0008               	return
  5553     0488                     __end_of_lcdWriteNibble:
  5554                           
  5555                           	psect	text17
  5556     029F                     __ptext17:	
  5557 ;; *************** function _adc_GetTConversion *****************
  5558 ;; Defined at:
  5559 ;;		line 21 in file "adc.c"
  5560 ;; Parameters:    Size  Location     Type
  5561 ;;		None
  5562 ;; Auto vars:     Size  Location     Type
  5563 ;;  result          2    2[COMMON] unsigned int 
  5564 ;; Return value:  Size  Location     Type
  5565 ;;                  2    0[COMMON] unsigned int 
  5566 ;; Registers used:
  5567 ;;		wreg
  5568 ;; Tracked objects:
  5569 ;;		On entry : 0/0
  5570 ;;		On exit  : 0/0
  5571 ;;		Unchanged: 0/0
  5572 ;; Data sizes:     COMMON   BANK0   BANK1   BANK2   BANK3   BANK4   BANK5   BANK6   BANK7   BANK8   BANK9  BANK10  BANK1
      +1  BANK12  BANK13  BANK14  BANK15  BANK16  BANK17  BANK18  BANK19  BANK20  BANK21  BANK22  BANK23  BANK24  BANK25  BANK2
      +6  BANK27  BANK28  BANK29  BANK30  BANK31  BANK32  BANK33  BANK34  BANK35  BANK36  BANK37  BANK38  BANK39  BANK40  BANK4
      +1  BANK42  BANK43  BANK44  BANK45  BANK46  BANK47  BANK48  BANK49  BANK50
  5573 ;;      Params:         2       0       0       0       0       0       0       0       0       0       0       0       
      +0       0       0       0       0       0       0       0       0       0       0       0       0       0       0       
      +0       0       0       0       0       0       0       0       0       0       0       0       0       0       0       
      +0       0       0       0       0       0       0       0       0       0
  5574 ;;      Locals:         2       0       0       0       0       0       0       0       0       0       0       0       
      +0       0       0       0       0       0       0       0       0       0       0       0       0       0       0       
      +0       0       0       0       0       0       0       0       0       0       0       0       0       0       0       
      +0       0       0       0       0       0       0       0       0       0
  5575 ;;      Temps:          0       0       0       0       0       0       0       0       0       0       0       0       
      +0       0       0       0       0       0       0       0       0       0       0       0       0       0       0       
      +0       0       0       0       0       0       0       0       0       0       0       0       0       0       0       
      +0       0       0       0       0       0       0       0       0       0
  5576 ;;      Totals:         4       0       0       0       0       0       0       0       0       0       0       0       
      +0       0       0       0       0       0       0       0       0       0       0       0       0       0       0       
      +0       0       0       0       0       0       0       0       0       0       0       0       0       0       0       
      +0       0       0       0       0       0       0       0       0       0
  5577 ;;Total ram usage:        4 bytes
  5578 ;; Hardware stack levels used: 1
  5579 ;; This function calls:
  5580 ;;		Nothing
  5581 ;; This function is called by:
  5582 ;;		_dspTaskT_OnLCD
  5583 ;; This function uses a non-reentrant model
  5584 ;;
  5585                           
  5586     029F                     _adc_GetTConversion:	
  5587                           ;psect for function _adc_GetTConversion
  5588                           
  5589     029F                     l1191:	
  5590                           ;incstack = 0
  5591                           ; Regs used in _adc_GetTConversion: [wreg]
  5592                           
  5593                           
  5594                           ;adc.c: 23:     unsigned int result;;adc.c: 24:     ADPCH = 0b00000001;
  5595     029F  3001               	movlw	1
  5596     02A0  0141               	movlb	1	; select bank1
  5597     02A1  009E               	movwf	30	;volatile
  5598     02A2                     l1193:
  5599                           
  5600                           ;adc.c: 25:     _delay((unsigned long)((2)*(4000000/4000000.0)));
  5601     02A2  3200               	nop2	;2 cycle nop
  5602     02A3                     l1195:
  5603                           
  5604                           ;adc.c: 26:     ADCON0bits.ADGO = 1;
  5605     02A3  0141               	movlb	1	; select bank1
  5606     02A4  1413               	bsf	19,0	;volatile
  5607     02A5                     l24:	
  5608                           ;adc.c: 27:     while(ADCON0bits.ADGO == 1);
  5609                           
  5610     02A5  1813               	btfsc	19,0	;volatile
  5611     02A6  2AA8               	goto	u651
  5612     02A7  2AA9               	goto	u650
  5613     02A8                     u651:
  5614     02A8  2AA5               	goto	l24
  5615     02A9                     u650:
  5616     02A9                     l1197:
  5617                           
  5618                           ;adc.c: 28:     result = ADRESH*256+ADRESL ;
  5619     02A9  080D               	movf	13,w	;volatile
  5620     02AA  00F3               	movwf	adc_GetTConversion@result+1
  5621     02AB  080C               	movf	12,w	;volatile
  5622     02AC  00F2               	movwf	adc_GetTConversion@result
  5623                           
  5624                           ;adc.c: 29:     return (result);
  5625     02AD  0873               	movf	adc_GetTConversion@result+1,w
  5626     02AE  00F1               	movwf	?_adc_GetTConversion+1
  5627     02AF  0872               	movf	adc_GetTConversion@result,w
  5628     02B0  00F0               	movwf	?_adc_GetTConversion
  5629     02B1                     l27:
  5630     02B1  0008               	return
  5631     02B2                     __end_of_adc_GetTConversion:
  5632                           
  5633                           	psect	text18
  5634     0339                     __ptext18:	
  5635 ;; *************** function ___wmul *****************
  5636 ;; Defined at:
  5637 ;;		line 15 in file "C:\Program Files\Microchip\xc8\v2.41\pic\sources\c99\common\Umul16.c"
  5638 ;; Parameters:    Size  Location     Type
  5639 ;;  multiplier      2    0[COMMON] unsigned int 
  5640 ;;  multiplicand    2    2[COMMON] unsigned int 
  5641 ;; Auto vars:     Size  Location     Type
  5642 ;;  product         2    4[COMMON] unsigned int 
  5643 ;; Return value:  Size  Location     Type
  5644 ;;                  2    0[COMMON] unsigned int 
  5645 ;; Registers used:
  5646 ;;		wreg, status,2, status,0
  5647 ;; Tracked objects:
  5648 ;;		On entry : 0/0
  5649 ;;		On exit  : 0/0
  5650 ;;		Unchanged: 0/0
  5651 ;; Data sizes:     COMMON   BANK0   BANK1   BANK2   BANK3   BANK4   BANK5   BANK6   BANK7   BANK8   BANK9  BANK10  BANK1
      +1  BANK12  BANK13  BANK14  BANK15  BANK16  BANK17  BANK18  BANK19  BANK20  BANK21  BANK22  BANK23  BANK24  BANK25  BANK2
      +6  BANK27  BANK28  BANK29  BANK30  BANK31  BANK32  BANK33  BANK34  BANK35  BANK36  BANK37  BANK38  BANK39  BANK40  BANK4
      +1  BANK42  BANK43  BANK44  BANK45  BANK46  BANK47  BANK48  BANK49  BANK50
  5652 ;;      Params:         4       0       0       0       0       0       0       0       0       0       0       0       
      +0       0       0       0       0       0       0       0       0       0       0       0       0       0       0       
      +0       0       0       0       0       0       0       0       0       0       0       0       0       0       0       
      +0       0       0       0       0       0       0       0       0       0
  5653 ;;      Locals:         2       0       0       0       0       0       0       0       0       0       0       0       
      +0       0       0       0       0       0       0       0       0       0       0       0       0       0       0       
      +0       0       0       0       0       0       0       0       0       0       0       0       0       0       0       
      +0       0       0       0       0       0       0       0       0       0
  5654 ;;      Temps:          0       0       0       0       0       0       0       0       0       0       0       0       
      +0       0       0       0       0       0       0       0       0       0       0       0       0       0       0       
      +0       0       0       0       0       0       0       0       0       0       0       0       0       0       0       
      +0       0       0       0       0       0       0       0       0       0
  5655 ;;      Totals:         6       0       0       0       0       0       0       0       0       0       0       0       
      +0       0       0       0       0       0       0       0       0       0       0       0       0       0       0       
      +0       0       0       0       0       0       0       0       0       0       0       0       0       0       0       
      +0       0       0       0       0       0       0       0       0       0
  5656 ;;Total ram usage:        6 bytes
  5657 ;; Hardware stack levels used: 1
  5658 ;; This function calls:
  5659 ;;		Nothing
  5660 ;; This function is called by:
  5661 ;;		_dspTaskT_OnLCD
  5662 ;; This function uses a non-reentrant model
  5663 ;;
  5664                           
  5665     0339                     ___wmul:	
  5666                           ;psect for function ___wmul
  5667                           
  5668     0339                     l1247:	
  5669                           ;incstack = 0
  5670                           ; Regs used in ___wmul: [wreg+status,2+status,0]
  5671                           
  5672     0339  01F4               	clrf	___wmul@product
  5673     033A  01F5               	clrf	___wmul@product+1
  5674     033B                     l1249:
  5675     033B  1C70               	btfss	___wmul@multiplier,0
  5676     033C  2B3E               	goto	u711
  5677     033D  2B3F               	goto	u710
  5678     033E                     u711:
  5679     033E  2B43               	goto	l337
  5680     033F                     u710:
  5681     033F                     l1251:
  5682     033F  0872               	movf	___wmul@multiplicand,w
  5683     0340  07F4               	addwf	___wmul@product,f
  5684     0341  0873               	movf	___wmul@multiplicand+1,w
  5685     0342  3DF5               	addwfc	___wmul@product+1,f
  5686     0343                     l337:
  5687     0343  3001               	movlw	1
  5688     0344                     u725:
  5689     0344  35F2               	lslf	___wmul@multiplicand,f
  5690     0345  0DF3               	rlf	___wmul@multiplicand+1,f
  5691     0346  0B89               	decfsz	9,f
  5692     0347  2B44               	goto	u725
  5693     0348                     l1253:
  5694     0348  3001               	movlw	1
  5695     0349                     u735:
  5696     0349  36F1               	lsrf	___wmul@multiplier+1,f
  5697     034A  0CF0               	rrf	___wmul@multiplier,f
  5698     034B  0B89               	decfsz	9,f
  5699     034C  2B49               	goto	u735
  5700     034D                     l1255:
  5701     034D  0870               	movf	___wmul@multiplier,w
  5702     034E  0471               	iorwf	___wmul@multiplier+1,w
  5703     034F  1D03               	btfss	3,2
  5704     0350  2B52               	goto	u741
  5705     0351  2B53               	goto	u740
  5706     0352                     u741:
  5707     0352  2B3B               	goto	l1249
  5708     0353                     u740:
  5709     0353                     l1257:
  5710     0353  0875               	movf	___wmul@product+1,w
  5711     0354  00F1               	movwf	?___wmul+1
  5712     0355  0874               	movf	___wmul@product,w
  5713     0356  00F0               	movwf	?___wmul
  5714     0357                     l339:
  5715     0357  0008               	return
  5716     0358                     __end_of___wmul:
  5717                           
  5718                           	psect	text19
  5719     03D5                     __ptext19:	
  5720 ;; *************** function ___lwmod *****************
  5721 ;; Defined at:
  5722 ;;		line 5 in file "C:\Program Files\Microchip\xc8\v2.41\pic\sources\c99\common\lwmod.c"
  5723 ;; Parameters:    Size  Location     Type
  5724 ;;  divisor         2    0[BANK0 ] unsigned int 
  5725 ;;  dividend        2    2[BANK0 ] unsigned int 
  5726 ;; Auto vars:     Size  Location     Type
  5727 ;;  counter         1    5[BANK0 ] unsigned char 
  5728 ;; Return value:  Size  Location     Type
  5729 ;;                  2    0[BANK0 ] unsigned int 
  5730 ;; Registers used:
  5731 ;;		wreg, status,2, status,0
  5732 ;; Tracked objects:
  5733 ;;		On entry : 0/0
  5734 ;;		On exit  : 0/0
  5735 ;;		Unchanged: 0/0
  5736 ;; Data sizes:     COMMON   BANK0   BANK1   BANK2   BANK3   BANK4   BANK5   BANK6   BANK7   BANK8   BANK9  BANK10  BANK1
      +1  BANK12  BANK13  BANK14  BANK15  BANK16  BANK17  BANK18  BANK19  BANK20  BANK21  BANK22  BANK23  BANK24  BANK25  BANK2
      +6  BANK27  BANK28  BANK29  BANK30  BANK31  BANK32  BANK33  BANK34  BANK35  BANK36  BANK37  BANK38  BANK39  BANK40  BANK4
      +1  BANK42  BANK43  BANK44  BANK45  BANK46  BANK47  BANK48  BANK49  BANK50
  5737 ;;      Params:         0       4       0       0       0       0       0       0       0       0       0       0       
      +0       0       0       0       0       0       0       0       0       0       0       0       0       0       0       
      +0       0       0       0       0       0       0       0       0       0       0       0       0       0       0       
      +0       0       0       0       0       0       0       0       0       0
  5738 ;;      Locals:         0       1       0       0       0       0       0       0       0       0       0       0       
      +0       0       0       0       0       0       0       0       0       0       0       0       0       0       0       
      +0       0       0       0       0       0       0       0       0       0       0       0       0       0       0       
      +0       0       0       0       0       0       0       0       0       0
  5739 ;;      Temps:          0       1       0       0       0       0       0       0       0       0       0       0       
      +0       0       0       0       0       0       0       0       0       0       0       0       0       0       0       
      +0       0       0       0       0       0       0       0       0       0       0       0       0       0       0       
      +0       0       0       0       0       0       0       0       0       0
  5740 ;;      Totals:         0       6       0       0       0       0       0       0       0       0       0       0       
      +0       0       0       0       0       0       0       0       0       0       0       0       0       0       0       
      +0       0       0       0       0       0       0       0       0       0       0       0       0       0       0       
      +0       0       0       0       0       0       0       0       0       0
  5741 ;;Total ram usage:        6 bytes
  5742 ;; Hardware stack levels used: 1
  5743 ;; This function calls:
  5744 ;;		Nothing
  5745 ;; This function is called by:
  5746 ;;		_dspTaskT_OnLCD
  5747 ;; This function uses a non-reentrant model
  5748 ;;
  5749                           
  5750     03D5                     ___lwmod:	
  5751                           ;psect for function ___lwmod
  5752                           
  5753     03D5                     l1369:	
  5754                           ;incstack = 0
  5755                           ; Regs used in ___lwmod: [wreg+status,2+status,0]
  5756                           
  5757     03D5  0140               	movlb	0	; select bank0
  5758     03D6  0820               	movf	___lwmod@divisor,w
  5759     03D7  0421               	iorwf	___lwmod@divisor+1,w
  5760     03D8  1903               	btfsc	3,2
  5761     03D9  2BDB               	goto	u1011
  5762     03DA  2BDC               	goto	u1010
  5763     03DB                     u1011:
  5764     03DB  2C05               	goto	l1387
  5765     03DC                     u1010:
  5766     03DC                     l1371:
  5767     03DC  01A5               	clrf	___lwmod@counter
  5768     03DD  0AA5               	incf	___lwmod@counter,f
  5769     03DE  2BE8               	goto	l1377
  5770     03DF                     l1373:
  5771     03DF  3001               	movlw	1
  5772     03E0                     u1025:
  5773     03E0  35A0               	lslf	___lwmod@divisor,f
  5774     03E1  0DA1               	rlf	___lwmod@divisor+1,f
  5775     03E2  0B89               	decfsz	9,f
  5776     03E3  2BE0               	goto	u1025
  5777     03E4                     l1375:
  5778     03E4  3001               	movlw	1
  5779     03E5  00A4               	movwf	??___lwmod
  5780     03E6  0824               	movf	??___lwmod,w
  5781     03E7  07A5               	addwf	___lwmod@counter,f
  5782     03E8                     l1377:
  5783     03E8  1FA1               	btfss	___lwmod@divisor+1,7
  5784     03E9  2BEB               	goto	u1031
  5785     03EA  2BEC               	goto	u1030
  5786     03EB                     u1031:
  5787     03EB  2BDF               	goto	l1373
  5788     03EC                     u1030:
  5789     03EC                     l1379:
  5790     03EC  0821               	movf	___lwmod@divisor+1,w
  5791     03ED  0223               	subwf	___lwmod@dividend+1,w
  5792     03EE  1D03               	skipz
  5793     03EF  2BF2               	goto	u1045
  5794     03F0  0820               	movf	___lwmod@divisor,w
  5795     03F1  0222               	subwf	___lwmod@dividend,w
  5796     03F2                     u1045:
  5797     03F2  1C03               	skipc
  5798     03F3  2BF5               	goto	u1041
  5799     03F4  2BF6               	goto	u1040
  5800     03F5                     u1041:
  5801     03F5  2BFA               	goto	l1383
  5802     03F6                     u1040:
  5803     03F6                     l1381:
  5804     03F6  0820               	movf	___lwmod@divisor,w
  5805     03F7  02A2               	subwf	___lwmod@dividend,f
  5806     03F8  0821               	movf	___lwmod@divisor+1,w
  5807     03F9  3BA3               	subwfb	___lwmod@dividend+1,f
  5808     03FA                     l1383:
  5809     03FA  3001               	movlw	1
  5810     03FB                     u1055:
  5811     03FB  36A1               	lsrf	___lwmod@divisor+1,f
  5812     03FC  0CA0               	rrf	___lwmod@divisor,f
  5813     03FD  0B89               	decfsz	9,f
  5814     03FE  2BFB               	goto	u1055
  5815     03FF                     l1385:
  5816     03FF  3001               	movlw	1
  5817     0400  02A5               	subwf	___lwmod@counter,f
  5818     0401  1D03               	btfss	3,2
  5819     0402  2C04               	goto	u1061
  5820     0403  2C05               	goto	u1060
  5821     0404                     u1061:
  5822     0404  2BEC               	goto	l1379
  5823     0405                     u1060:
  5824     0405                     l1387:
  5825     0405  0823               	movf	___lwmod@dividend+1,w
  5826     0406  00A1               	movwf	?___lwmod+1
  5827     0407  0822               	movf	___lwmod@dividend,w
  5828     0408  00A0               	movwf	?___lwmod
  5829     0409                     l627:
  5830     0409  0008               	return
  5831     040A                     __end_of___lwmod:
  5832                           
  5833                           	psect	text20
  5834     040A                     __ptext20:	
  5835 ;; *************** function ___lwdiv *****************
  5836 ;; Defined at:
  5837 ;;		line 5 in file "C:\Program Files\Microchip\xc8\v2.41\pic\sources\c99\common\lwdiv.c"
  5838 ;; Parameters:    Size  Location     Type
  5839 ;;  divisor         2    6[COMMON] unsigned int 
  5840 ;;  dividend        2    8[COMMON] unsigned int 
  5841 ;; Auto vars:     Size  Location     Type
  5842 ;;  quotient        2   11[COMMON] unsigned int 
  5843 ;;  counter         1   13[COMMON] unsigned char 
  5844 ;; Return value:  Size  Location     Type
  5845 ;;                  2    6[COMMON] unsigned int 
  5846 ;; Registers used:
  5847 ;;		wreg, status,2, status,0
  5848 ;; Tracked objects:
  5849 ;;		On entry : 0/0
  5850 ;;		On exit  : 0/0
  5851 ;;		Unchanged: 0/0
  5852 ;; Data sizes:     COMMON   BANK0   BANK1   BANK2   BANK3   BANK4   BANK5   BANK6   BANK7   BANK8   BANK9  BANK10  BANK1
      +1  BANK12  BANK13  BANK14  BANK15  BANK16  BANK17  BANK18  BANK19  BANK20  BANK21  BANK22  BANK23  BANK24  BANK25  BANK2
      +6  BANK27  BANK28  BANK29  BANK30  BANK31  BANK32  BANK33  BANK34  BANK35  BANK36  BANK37  BANK38  BANK39  BANK40  BANK4
      +1  BANK42  BANK43  BANK44  BANK45  BANK46  BANK47  BANK48  BANK49  BANK50
  5853 ;;      Params:         4       0       0       0       0       0       0       0       0       0       0       0       
      +0       0       0       0       0       0       0       0       0       0       0       0       0       0       0       
      +0       0       0       0       0       0       0       0       0       0       0       0       0       0       0       
      +0       0       0       0       0       0       0       0       0       0
  5854 ;;      Locals:         3       0       0       0       0       0       0       0       0       0       0       0       
      +0       0       0       0       0       0       0       0       0       0       0       0       0       0       0       
      +0       0       0       0       0       0       0       0       0       0       0       0       0       0       0       
      +0       0       0       0       0       0       0       0       0       0
  5855 ;;      Temps:          1       0       0       0       0       0       0       0       0       0       0       0       
      +0       0       0       0       0       0       0       0       0       0       0       0       0       0       0       
      +0       0       0       0       0       0       0       0       0       0       0       0       0       0       0       
      +0       0       0       0       0       0       0       0       0       0
  5856 ;;      Totals:         8       0       0       0       0       0       0       0       0       0       0       0       
      +0       0       0       0       0       0       0       0       0       0       0       0       0       0       0       
      +0       0       0       0       0       0       0       0       0       0       0       0       0       0       0       
      +0       0       0       0       0       0       0       0       0       0
  5857 ;;Total ram usage:        8 bytes
  5858 ;; Hardware stack levels used: 1
  5859 ;; This function calls:
  5860 ;;		Nothing
  5861 ;; This function is called by:
  5862 ;;		_dspTaskT_OnLCD
  5863 ;;		_dspTaskW_OnLCD
  5864 ;; This function uses a non-reentrant model
  5865 ;;
  5866                           
  5867     040A                     ___lwdiv:	
  5868                           ;psect for function ___lwdiv
  5869                           
  5870     040A                     l1343:	
  5871                           ;incstack = 0
  5872                           ; Regs used in ___lwdiv: [wreg+status,2+status,0]
  5873                           
  5874     040A  01FB               	clrf	___lwdiv@quotient
  5875     040B  01FC               	clrf	___lwdiv@quotient+1
  5876     040C                     l1345:
  5877     040C  0876               	movf	___lwdiv@divisor,w
  5878     040D  0477               	iorwf	___lwdiv@divisor+1,w
  5879     040E  1903               	btfsc	3,2
  5880     040F  2C11               	goto	u941
  5881     0410  2C12               	goto	u940
  5882     0411                     u941:
  5883     0411  2C41               	goto	l1365
  5884     0412                     u940:
  5885     0412                     l1347:
  5886     0412  01FD               	clrf	___lwdiv@counter
  5887     0413  0AFD               	incf	___lwdiv@counter,f
  5888     0414  2C1E               	goto	l1353
  5889     0415                     l1349:
  5890     0415  3001               	movlw	1
  5891     0416                     u955:
  5892     0416  35F6               	lslf	___lwdiv@divisor,f
  5893     0417  0DF7               	rlf	___lwdiv@divisor+1,f
  5894     0418  0B89               	decfsz	9,f
  5895     0419  2C16               	goto	u955
  5896     041A                     l1351:
  5897     041A  3001               	movlw	1
  5898     041B  00FA               	movwf	??___lwdiv
  5899     041C  087A               	movf	??___lwdiv,w
  5900     041D  07FD               	addwf	___lwdiv@counter,f
  5901     041E                     l1353:
  5902     041E  1FF7               	btfss	___lwdiv@divisor+1,7
  5903     041F  2C21               	goto	u961
  5904     0420  2C22               	goto	u960
  5905     0421                     u961:
  5906     0421  2C15               	goto	l1349
  5907     0422                     u960:
  5908     0422                     l1355:
  5909     0422  3001               	movlw	1
  5910     0423                     u975:
  5911     0423  35FB               	lslf	___lwdiv@quotient,f
  5912     0424  0DFC               	rlf	___lwdiv@quotient+1,f
  5913     0425  0B89               	decfsz	9,f
  5914     0426  2C23               	goto	u975
  5915     0427  0877               	movf	___lwdiv@divisor+1,w
  5916     0428  0279               	subwf	___lwdiv@dividend+1,w
  5917     0429  1D03               	skipz
  5918     042A  2C2D               	goto	u985
  5919     042B  0876               	movf	___lwdiv@divisor,w
  5920     042C  0278               	subwf	___lwdiv@dividend,w
  5921     042D                     u985:
  5922     042D  1C03               	skipc
  5923     042E  2C30               	goto	u981
  5924     042F  2C31               	goto	u980
  5925     0430                     u981:
  5926     0430  2C36               	goto	l1361
  5927     0431                     u980:
  5928     0431                     l1357:
  5929     0431  0876               	movf	___lwdiv@divisor,w
  5930     0432  02F8               	subwf	___lwdiv@dividend,f
  5931     0433  0877               	movf	___lwdiv@divisor+1,w
  5932     0434  3BF9               	subwfb	___lwdiv@dividend+1,f
  5933     0435                     l1359:
  5934     0435  147B               	bsf	___lwdiv@quotient,0
  5935     0436                     l1361:
  5936     0436  3001               	movlw	1
  5937     0437                     u995:
  5938     0437  36F7               	lsrf	___lwdiv@divisor+1,f
  5939     0438  0CF6               	rrf	___lwdiv@divisor,f
  5940     0439  0B89               	decfsz	9,f
  5941     043A  2C37               	goto	u995
  5942     043B                     l1363:
  5943     043B  3001               	movlw	1
  5944     043C  02FD               	subwf	___lwdiv@counter,f
  5945     043D  1D03               	btfss	3,2
  5946     043E  2C40               	goto	u1001
  5947     043F  2C41               	goto	u1000
  5948     0440                     u1001:
  5949     0440  2C22               	goto	l1355
  5950     0441                     u1000:
  5951     0441                     l1365:
  5952     0441  087C               	movf	___lwdiv@quotient+1,w
  5953     0442  00F7               	movwf	?___lwdiv+1
  5954     0443  087B               	movf	___lwdiv@quotient,w
  5955     0444  00F6               	movwf	?___lwdiv
  5956     0445                     l617:
  5957     0445  0008               	return
  5958     0446                     __end_of___lwdiv:
  5959     007E                     btemp	set	126	;btemp
  5960     007E                     wtemp0	set	126
  5961                           
  5962                           	psect	config
  5963                           
  5964                           ;Config register CONFIG1 @ 0x8007
  5965                           ;	External Oscillator mode selection bits
  5966                           ;	FEXTOSC = XT, XT (crystal oscillator) above 500kHz, below 4MHz; PFM set to medium powe
      +                          r
  5967                           ;	Power-up default value for COSC bits
  5968                           ;	RSTOSC = 0x7, unprogrammed default
  5969                           ;	Clock Out Enable bit
  5970                           ;	CLKOUTEN = 0x1, unprogrammed default
  5971                           ;	Clock Switch Enable bit
  5972                           ;	CSWEN = 0x1, unprogrammed default
  5973                           ;	Fail-Safe Clock Monitor Enable bit
  5974                           ;	FCMEN = 0x1, unprogrammed default
  5975     8007                     	org	32775
  5976     8007  3FF9               	dw	16377
  5977                           
  5978                           ;Config register CONFIG3 @ 0x8009
  5979                           ;	WDT Period Select bits
  5980                           ;	WDTCPS = 0x1F, unprogrammed default
  5981                           ;	WDT operating mode
  5982                           ;	WDTE = OFF, WDT Disabled, SWDTEN is ignored
  5983                           ;	WDT Window Select bits
  5984                           ;	WDTCWS = 0x7, unprogrammed default
  5985                           ;	WDT input clock selector
  5986                           ;	WDTCCS = 0x7, unprogrammed default
  5987     8009                     	org	32777
  5988     8009  3F9F               	dw	16287
  5989                           
  5990                           ;Config register CONFIG4 @ 0x800A
  5991                           ;	UserNVM self-write protection bits
  5992                           ;	WRT = 0x3, unprogrammed default
  5993                           ;	Scanner Enable bit
  5994                           ;	SCANE = 0x1, unprogrammed default
  5995                           ;	Low Voltage Programming Enable bit
  5996                           ;	LVP = OFF, High Voltage on MCLR/Vpp must be used for programming
  5997     800A                     	org	32778
  5998     800A  1FFF               	dw	8191

Data Sizes:
    Strings     0
    Constant    0
    Data        87
    BSS         0
    Persistent  32
    Stack       0

Auto Spaces:
    Space          Size  Autos    Used
    COMMON           14     14      14
    BANK0            80     80      80
    BANK1            80     30      69
    BANK2            80      0      48
    BANK3            80      0       0
    BANK4            80      0       0
    BANK5            80      0       0
    BANK6            80      0       0
    BANK7            80      0       0
    BANK8            80      0       0
    BANK9            80      0       0
    BANK10           80      0       0
    BANK11           80      0       0
    BANK12           80      0       0
    BANK13           80      0       0
    BANK14           80      0       0
    BANK15           80      0       0
    BANK16           80      0       0
    BANK17           80      0       0
    BANK18           80      0       0
    BANK19           80      0       0
    BANK20           80      0       0
    BANK21           80      0       0
    BANK22           80      0       0
    BANK23           80      0       0
    BANK24           80      0       0
    BANK25           80      0       0
    BANK26           80      0       0
    BANK27           80      0       0
    BANK28           80      0       0
    BANK29           80      0       0
    BANK30           80      0       0
    BANK31           80      0       0
    BANK32           80      0       0
    BANK33           80      0       0
    BANK34           80      0       0
    BANK35           80      0       0
    BANK36           80      0       0
    BANK37           80      0       0
    BANK38           80      0       0
    BANK39           80      0       0
    BANK40           80      0       0
    BANK41           80      0       0
    BANK42           80      0       0
    BANK43           80      0       0
    BANK44           80      0       0
    BANK45           80      0       0
    BANK46           80      0       0
    BANK47           80      0       0
    BANK48           80      0       0
    BANK49           80      0       0
    BANK50           80      0       0

Pointer List with Targets:

    None.

Critical Paths under _main in COMMON

    _initLCD->_lcdCtrl_OnOffDisplay
    _lcdCtrl_SetEntryMode->_lcdWriteCtrlWord
    _lcdCtrl_OnOffDisplay->_lcdWriteCtrlWord
    _lcdCtrl_FunctionSet->_lcdWriteCtrlWord
    _lcdCtrl_ClearDisplay->_lcdWriteCtrlWord
    _dspTaskW_OnLCD->___awmod
    _dspTaskW_OnLCD->___lwdiv
    ___awmod->___awdiv
    _dspTaskT_OnLCD->___lwdiv
    _lcdWriteDspData->_lcdWriteNibble
    _lcdCtrl_SetPos->_lcdWriteCtrlWord
    _lcdWriteCtrlWord->_lcdWriteNibble
    ___lwmod->___lwdiv
    ___lwdiv->___wmul

Critical Paths under _main in BANK0

    _main->_dspTaskT_OnLCD
    _dspTaskW_OnLCD->___awmod
    _dspTaskT_OnLCD->___lwmod

Critical Paths under _main in BANK1

    None.

Critical Paths under _main in BANK2

    None.

Critical Paths under _main in BANK3

    None.

Critical Paths under _main in BANK4

    None.

Critical Paths under _main in BANK5

    None.

Critical Paths under _main in BANK6

    None.

Critical Paths under _main in BANK7

    None.

Critical Paths under _main in BANK8

    None.

Critical Paths under _main in BANK9

    None.

Critical Paths under _main in BANK10

    None.

Critical Paths under _main in BANK11

    None.

Critical Paths under _main in BANK12

    None.

Critical Paths under _main in BANK13

    None.

Critical Paths under _main in BANK14

    None.

Critical Paths under _main in BANK15

    None.

Critical Paths under _main in BANK16

    None.

Critical Paths under _main in BANK17

    None.

Critical Paths under _main in BANK18

    None.

Critical Paths under _main in BANK19

    None.

Critical Paths under _main in BANK20

    None.

Critical Paths under _main in BANK21

    None.

Critical Paths under _main in BANK22

    None.

Critical Paths under _main in BANK23

    None.

Critical Paths under _main in BANK24

    None.

Critical Paths under _main in BANK25

    None.

Critical Paths under _main in BANK26

    None.

Critical Paths under _main in BANK27

    None.

Critical Paths under _main in BANK28

    None.

Critical Paths under _main in BANK29

    None.

Critical Paths under _main in BANK30

    None.

Critical Paths under _main in BANK31

    None.

Critical Paths under _main in BANK32

    None.

Critical Paths under _main in BANK33

    None.

Critical Paths under _main in BANK34

    None.

Critical Paths under _main in BANK35

    None.

Critical Paths under _main in BANK36

    None.

Critical Paths under _main in BANK37

    None.

Critical Paths under _main in BANK38

    None.

Critical Paths under _main in BANK39

    None.

Critical Paths under _main in BANK40

    None.

Critical Paths under _main in BANK41

    None.

Critical Paths under _main in BANK42

    None.

Critical Paths under _main in BANK43

    None.

Critical Paths under _main in BANK44

    None.

Critical Paths under _main in BANK45

    None.

Critical Paths under _main in BANK46

    None.

Critical Paths under _main in BANK47

    None.

Critical Paths under _main in BANK48

    None.

Critical Paths under _main in BANK49

    None.

Critical Paths under _main in BANK50

    None.

Call Graph Tables:

 ---------------------------------------------------------------------------------
 (Depth) Function   	        Calls       Base Space   Used Autos Params    Refs
 ---------------------------------------------------------------------------------
 (0) _main                                                98    98      0    9899
                                             16 BANK0     64    64      0
                                              0 BANK1     30    30      0
                     _dspTaskT_OnLCD
                     _dspTaskW_OnLCD
                            _initADC
                            _initLCD
                        _initSysPins
                     _lcdCtrl_SetPos
                    _lcdWriteDspData
 ---------------------------------------------------------------------------------
 (1) _initSysPins                                          0     0      0       0
 ---------------------------------------------------------------------------------
 (1) _initLCD                                              1     1      0    1035
                                             11 COMMON     1     1      0
               _lcdCtrl_ClearDisplay
                _lcdCtrl_FunctionSet
               _lcdCtrl_OnOffDisplay
               _lcdCtrl_SetEntryMode
                   _lcdWriteCtrlWord
 ---------------------------------------------------------------------------------
 (2) _lcdCtrl_SetEntryMode                                 0     0      0     178
                   _lcdWriteCtrlWord
 ---------------------------------------------------------------------------------
 (2) _lcdCtrl_OnOffDisplay                                 4     3      1     323
                                              7 COMMON     4     3      1
                   _lcdWriteCtrlWord
 ---------------------------------------------------------------------------------
 (2) _lcdCtrl_FunctionSet                                  0     0      0     178
                   _lcdWriteCtrlWord
 ---------------------------------------------------------------------------------
 (2) _lcdCtrl_ClearDisplay                                 0     0      0     178
                   _lcdWriteCtrlWord
 ---------------------------------------------------------------------------------
 (1) _initADC                                              0     0      0       0
 ---------------------------------------------------------------------------------
 (1) _dspTaskW_OnLCD                                      10    10      0    3863
                                              2 BANK0     10    10      0
                            ___awdiv
                            ___awmod
                            ___lwdiv
                 _adc_GetWConversion
                     _lcdCtrl_SetPos
                    _lcdWriteDspData
 ---------------------------------------------------------------------------------
 (2) _adc_GetWConversion                                   4     2      2      23
                                              0 COMMON     4     2      2
 ---------------------------------------------------------------------------------
 (2) ___awmod                                              7     3      4     904
                                              9 COMMON     5     1      4
                                              0 BANK0      2     2      0
                            ___awdiv (ARG)
 ---------------------------------------------------------------------------------
 (2) ___awdiv                                              9     5      4     756
                                              0 COMMON     9     5      4
 ---------------------------------------------------------------------------------
 (1) _dspTaskT_OnLCD                                      10    10      0    3389
                                              6 BANK0     10    10      0
                            ___lwdiv
                            ___lwmod
                             ___wmul
                 _adc_GetTConversion
                     _lcdCtrl_SetPos
                    _lcdWriteDspData
 ---------------------------------------------------------------------------------
 (1) _lcdWriteDspData                                      4     4      0     178
                                              3 COMMON     4     4      0
                     _lcdWriteNibble
 ---------------------------------------------------------------------------------
 (1) _lcdCtrl_SetPos                                       3     2      1     876
                                              7 COMMON     3     2      1
                   _lcdWriteCtrlWord
 ---------------------------------------------------------------------------------
 (2) _lcdWriteCtrlWord                                     4     4      0     178
                                              3 COMMON     4     4      0
                     _lcdWriteNibble
 ---------------------------------------------------------------------------------
 (2) _lcdWriteNibble                                       3     3      0      88
                                              0 COMMON     3     3      0
 ---------------------------------------------------------------------------------
 (2) _adc_GetTConversion                                   4     2      2      23
                                              0 COMMON     4     2      2
 ---------------------------------------------------------------------------------
 (2) ___wmul                                               6     2      4     396
                                              0 COMMON     6     2      4
 ---------------------------------------------------------------------------------
 (2) ___lwmod                                              6     2      4     767
                                              0 BANK0      6     2      4
                            ___lwdiv (ARG)
 ---------------------------------------------------------------------------------
 (2) ___lwdiv                                              8     4      4     922
                                              6 COMMON     8     4      4
                             ___wmul (ARG)
 ---------------------------------------------------------------------------------
 Estimated maximum stack depth 2
 ---------------------------------------------------------------------------------

 Call Graph Graphs:

 _main (ROOT)
   _dspTaskT_OnLCD
     ___lwdiv
       ___wmul (ARG)
     ___lwmod
       ___lwdiv (ARG)
     ___wmul
     _adc_GetTConversion
     _lcdCtrl_SetPos
       _lcdWriteCtrlWord
         _lcdWriteNibble
     _lcdWriteDspData
       _lcdWriteNibble
   _dspTaskW_OnLCD
     ___awdiv
     ___awmod
       ___awdiv (ARG)
     ___lwdiv
     _adc_GetWConversion
     _lcdCtrl_SetPos
     _lcdWriteDspData
   _initADC
   _initLCD
     _lcdCtrl_ClearDisplay
       _lcdWriteCtrlWord
     _lcdCtrl_FunctionSet
       _lcdWriteCtrlWord
     _lcdCtrl_OnOffDisplay
       _lcdWriteCtrlWord
     _lcdCtrl_SetEntryMode
       _lcdWriteCtrlWord
     _lcdWriteCtrlWord
   _initSysPins
   _lcdCtrl_SetPos
   _lcdWriteDspData

 Address spaces:
Name               Size   Autos  Total    Cost      Usage
BIGRAM             FF0      0       0       0        0.0%
EEDATA             100      0       0       0        0.0%
NULL                 0      0       0       0        0.0%
CODE                 0      0       0       0        0.0%
BITCOMMON            E      0       0       1        0.0%
BITSFR0              0      0       0       1        0.0%
SFR0                 0      0       0       1        0.0%
COMMON               E      E       E       2      100.0%
BITSFR1              0      0       0       2        0.0%
SFR1                 0      0       0       2        0.0%
BITSFR2              0      0       0       3        0.0%
SFR2                 0      0       0       3        0.0%
STACK                0      0       0       3        0.0%
BITBANK0            50      0       0       4        0.0%
BITSFR3              0      0       0       4        0.0%
SFR3                 0      0       0       4        0.0%
BANK0               50     50      50       5      100.0%
BITSFR4              0      0       0       5        0.0%
SFR4                 0      0       0       5        0.0%
BITBANK1            50      0       0       6        0.0%
BITSFR5              0      0       0       6        0.0%
SFR5                 0      0       0       6        0.0%
BANK1               50     1E      45       7       86.2%
BITSFR6              0      0       0       7        0.0%
SFR6                 0      0       0       7        0.0%
BITBANK2            50      0       0       8        0.0%
BITSFR7              0      0       0       8        0.0%
SFR7                 0      0       0       8        0.0%
BANK2               50      0      30       9       60.0%
BITSFR8              0      0       0       9        0.0%
SFR8                 0      0       0       9        0.0%
BITBANK3            50      0       0      10        0.0%
BITSFR9              0      0       0      10        0.0%
SFR9                 0      0       0      10        0.0%
BANK3               50      0       0      11        0.0%
BITSFR10             0      0       0      11        0.0%
SFR10                0      0       0      11        0.0%
BITBANK4            50      0       0      12        0.0%
BITSFR11             0      0       0      12        0.0%
SFR11                0      0       0      12        0.0%
BANK4               50      0       0      13        0.0%
BITSFR12             0      0       0      13        0.0%
SFR12                0      0       0      13        0.0%
BITBANK5            50      0       0      14        0.0%
BITSFR13             0      0       0      14        0.0%
SFR13                0      0       0      14        0.0%
BANK5               50      0       0      15        0.0%
BITSFR14             0      0       0      15        0.0%
SFR14                0      0       0      15        0.0%
BITBANK6            50      0       0      16        0.0%
BITSFR15             0      0       0      16        0.0%
SFR15                0      0       0      16        0.0%
BANK6               50      0       0      17        0.0%
BITSFR16             0      0       0      17        0.0%
SFR16                0      0       0      17        0.0%
BITBANK7            50      0       0      18        0.0%
BITSFR17             0      0       0      18        0.0%
SFR17                0      0       0      18        0.0%
BANK7               50      0       0      19        0.0%
BITSFR18             0      0       0      19        0.0%
SFR18                0      0       0      19        0.0%
BITBANK8            50      0       0      20        0.0%
BITSFR19             0      0       0      20        0.0%
SFR19                0      0       0      20        0.0%
BANK8               50      0       0      21        0.0%
BITSFR20             0      0       0      21        0.0%
SFR20                0      0       0      21        0.0%
BITBANK9            50      0       0      22        0.0%
BITSFR21             0      0       0      22        0.0%
SFR21                0      0       0      22        0.0%
BANK9               50      0       0      23        0.0%
BITSFR22             0      0       0      23        0.0%
SFR22                0      0       0      23        0.0%
BITBANK10           50      0       0      24        0.0%
BITSFR23             0      0       0      24        0.0%
SFR23                0      0       0      24        0.0%
BANK10              50      0       0      25        0.0%
BITSFR24             0      0       0      25        0.0%
SFR24                0      0       0      25        0.0%
BITBANK11           50      0       0      26        0.0%
BITSFR25             0      0       0      26        0.0%
SFR25                0      0       0      26        0.0%
BANK11              50      0       0      27        0.0%
BITSFR26             0      0       0      27        0.0%
SFR26                0      0       0      27        0.0%
BITSFR27             0      0       0      28        0.0%
SFR27                0      0       0      28        0.0%
ABS                  0      0      D3      28        0.0%
BITBANK12           50      0       0      29        0.0%
BITSFR28             0      0       0      29        0.0%
SFR28                0      0       0      29        0.0%
BANK12              50      0       0      30        0.0%
BITSFR29             0      0       0      30        0.0%
SFR29                0      0       0      30        0.0%
BITBANK13           50      0       0      31        0.0%
BITSFR30             0      0       0      31        0.0%
SFR30                0      0       0      31        0.0%
BANK13              50      0       0      32        0.0%
BITSFR31             0      0       0      32        0.0%
SFR31                0      0       0      32        0.0%
BITBANK14           50      0       0      33        0.0%
BITSFR32             0      0       0      33        0.0%
SFR32                0      0       0      33        0.0%
BANK14              50      0       0      34        0.0%
BITSFR33             0      0       0      34        0.0%
SFR33                0      0       0      34        0.0%
BITBANK15           50      0       0      35        0.0%
BITSFR34             0      0       0      35        0.0%
SFR34                0      0       0      35        0.0%
BANK15              50      0       0      36        0.0%
BITSFR35             0      0       0      36        0.0%
SFR35                0      0       0      36        0.0%
BITBANK16           50      0       0      37        0.0%
BITSFR36             0      0       0      37        0.0%
SFR36                0      0       0      37        0.0%
BANK16              50      0       0      38        0.0%
BITSFR37             0      0       0      38        0.0%
SFR37                0      0       0      38        0.0%
BITBANK17           50      0       0      39        0.0%
BITSFR38             0      0       0      39        0.0%
SFR38                0      0       0      39        0.0%
BANK17              50      0       0      40        0.0%
BITSFR39             0      0       0      40        0.0%
SFR39                0      0       0      40        0.0%
BITBANK18           50      0       0      41        0.0%
BITSFR40             0      0       0      41        0.0%
SFR40                0      0       0      41        0.0%
BANK18              50      0       0      42        0.0%
BITSFR41             0      0       0      42        0.0%
SFR41                0      0       0      42        0.0%
BITBANK19           50      0       0      43        0.0%
BITSFR42             0      0       0      43        0.0%
SFR42                0      0       0      43        0.0%
BANK19              50      0       0      44        0.0%
BITSFR43             0      0       0      44        0.0%
SFR43                0      0       0      44        0.0%
BITBANK20           50      0       0      45        0.0%
BITSFR44             0      0       0      45        0.0%
SFR44                0      0       0      45        0.0%
BANK20              50      0       0      46        0.0%
BITSFR45             0      0       0      46        0.0%
SFR45                0      0       0      46        0.0%
BITBANK21           50      0       0      47        0.0%
BITSFR46             0      0       0      47        0.0%
SFR46                0      0       0      47        0.0%
BANK21              50      0       0      48        0.0%
BITSFR47             0      0       0      48        0.0%
SFR47                0      0       0      48        0.0%
BITBANK22           50      0       0      49        0.0%
BITSFR48             0      0       0      49        0.0%
SFR48                0      0       0      49        0.0%
BANK22              50      0       0      50        0.0%
BITSFR49             0      0       0      50        0.0%
SFR49                0      0       0      50        0.0%
BITBANK23           50      0       0      51        0.0%
BITSFR50             0      0       0      51        0.0%
SFR50                0      0       0      51        0.0%
BANK23              50      0       0      52        0.0%
BITSFR51             0      0       0      52        0.0%
SFR51                0      0       0      52        0.0%
BITBANK24           50      0       0      53        0.0%
BITSFR52             0      0       0      53        0.0%
SFR52                0      0       0      53        0.0%
BANK24              50      0       0      54        0.0%
BITSFR53             0      0       0      54        0.0%
SFR53                0      0       0      54        0.0%
BITBANK25           50      0       0      55        0.0%
BITSFR54             0      0       0      55        0.0%
SFR54                0      0       0      55        0.0%
BANK25              50      0       0      56        0.0%
BITSFR55             0      0       0      56        0.0%
SFR55                0      0       0      56        0.0%
BITBANK26           50      0       0      57        0.0%
BITSFR56             0      0       0      57        0.0%
SFR56                0      0       0      57        0.0%
BANK26              50      0       0      58        0.0%
BITSFR57             0      0       0      58        0.0%
SFR57                0      0       0      58        0.0%
BITSFR58             0      0       0      59        0.0%
SFR58                0      0       0      59        0.0%
DATA                 0      0      D3      59        0.0%
BITBANK27           50      0       0      60        0.0%
BITSFR59             0      0       0      60        0.0%
SFR59                0      0       0      60        0.0%
BANK27              50      0       0      61        0.0%
BITSFR60             0      0       0      61        0.0%
SFR60                0      0       0      61        0.0%
BITBANK28           50      0       0      62        0.0%
BITSFR61             0      0       0      62        0.0%
SFR61                0      0       0      62        0.0%
BANK28              50      0       0      63        0.0%
BITSFR62             0      0       0      63        0.0%
SFR62                0      0       0      63        0.0%
BITBANK29           50      0       0      64        0.0%
BITSFR63             0      0       0      64        0.0%
SFR63                0      0       0      64        0.0%
BANK29              50      0       0      65        0.0%
BITBANK30           50      0       0      66        0.0%
BANK30              50      0       0      67        0.0%
BITBANK31           50      0       0      68        0.0%
BANK31              50      0       0      69        0.0%
BITBANK32           50      0       0      70        0.0%
BANK32              50      0       0      71        0.0%
BITBANK33           50      0       0      72        0.0%
BANK33              50      0       0      73        0.0%
BITBANK34           50      0       0      74        0.0%
BANK34              50      0       0      75        0.0%
BITBANK35           50      0       0      76        0.0%
BANK35              50      0       0      77        0.0%
BITBANK36           50      0       0      78        0.0%
BANK36              50      0       0      79        0.0%
BITBANK37           50      0       0      80        0.0%
BANK37              50      0       0      81        0.0%
BITBANK38           50      0       0      82        0.0%
BANK38              50      0       0      83        0.0%
BITBANK39           50      0       0      84        0.0%
BANK39              50      0       0      85        0.0%
BITBANK40           50      0       0      86        0.0%
BANK40              50      0       0      87        0.0%
BITBANK41           50      0       0      88        0.0%
BANK41              50      0       0      89        0.0%
BITBANK42           50      0       0      90        0.0%
BANK42              50      0       0      91        0.0%
BITBANK43           50      0       0      92        0.0%
BANK43              50      0       0      93        0.0%
BITBANK44           50      0       0      94        0.0%
BANK44              50      0       0      95        0.0%
BITBANK45           50      0       0      96        0.0%
BANK45              50      0       0      97        0.0%
BITBANK46           50      0       0      98        0.0%
BANK46              50      0       0      99        0.0%
BITBANK47           50      0       0     100        0.0%
BANK47              50      0       0     101        0.0%
BITBANK48           50      0       0     102        0.0%
BANK48              50      0       0     103        0.0%
BITBANK49           50      0       0     104        0.0%
BANK49              50      0       0     105        0.0%
BITBANK50           50      0       0     106        0.0%
BANK50              50      0       0     107        0.0%


Microchip Technology PIC Macro Assembler V2.41 build 20230208172133 
Symbol Table                                                                                   Thu Jul 13 08:56:44 2023

             ?_lcdCtrl_FunctionSet 0070                                 l21 029E  
                               l30 02CB                                 l24 02A5  
                               l33 02D7                                 l27 02B1  
                               l86 070B                                 l87 0777  
                     ___awdiv@sign 0076             ??_lcdCtrl_OnOffDisplay 0078  
              ___wmul@multiplicand 0072                                l120 0338  
                              l132 06A4                                l160 0306  
                              l136 05E0                                l171 02C4  
                              l163 031E                                l157 037D  
                              l166 0487                                l174 028B  
                              l182 0290                                l503 04DB  
                              l337 0343                                l185 0286  
                              l339 0357                                l179 02EE  
                              l617 0445                                l490 053A  
                              l627 0409                                u700 02E6  
                              u701 02E5                                u710 033F  
                              u711 033E                                u625 044A  
                              u650 02A9                                u810 051C  
                              u651 02A8                                u635 045B  
                              u811 051B                                u740 0353  
                              u900 04BE                                u660 02CF  
                              u741 0352                                u725 0344  
                              u645 02F3                                u805 050E  
                              u901 04BD                                u661 02CE  
                              u670 02B8                                u830 052C  
                              u750 04E1                                u735 0349  
                              u671 02B7                                u831 052B  
                              u815 0518                                u751 04E0  
                              u840 0531                                u760 04EC  
                              u920 04CD                                u841 0530  
                              u825 0522                                u761 04EB  
                              u921 04CC                                u905 04BA  
                              u770 04FD                                u930 04D2  
                              u850 048E                                u690 02E0  
                              u771 04FC                                u931 04D1  
                              u915 04C3                                u851 048D  
                              u691 02DF                                u940 0412  
                              u860 0499                                u941 0411  
                              u685 030B                                u861 0498  
                              u790 050D                                u870 04A4  
                              u791 050C                                u871 04A3  
                              u960 0422                                u961 0421  
                              u785 0501                                u890 04B4  
                              u955 0416                                u891 04B3  
                              u980 0431                                u981 0430  
                              u885 04A8                                u975 0423  
                              u985 042D                                u995 0437  
                     ___awmod@sign 0021                                wreg 0009  
                             l1201 02C5                               l1211 02B3  
                             l1203 02C8                               l1213 02B8  
                             l1221 0311                               l1301 0536  
                             l1205 02C9                               l1215 02BC  
                             l1223 0314                               l1311 0493  
                             l1207 02CF                               l1231 02D9  
                             l1217 02BF                               l1225 0316  
                             l1321 04A7                               l1313 0495  
                             l1305 0488                               l1241 02EA  
                             l1233 02DB                               l1401 0327  
                             l1251 033F                               l1171 0447  
                             l1227 031A                               l1219 0308  
                             l1331 04C2                               l1323 04AC  
                             l1315 0499                               l1307 048A  
                             l1235 02E0                               l1243 028C  
                             l1411 0363                               l1403 0330  
                             l1253 0348                               l1173 047C  
                             l1181 02F0                               l1421 062A  
                             l1413 05E1                               l1261 04DC  
                             l1333 04C7                               l1325 04B0  
                             l1317 049E                               l1309 048E  
                             l1245 0282                               l1229 0287  
                             l1237 02E1                               l1405 0333  
                             l1501 0748                               l1351 041A  
                             l1343 040A                               l1255 034D  
                             l1247 0339                               l1191 029F  
                             l1175 047D                               l1183 02F9  
                             l1431 068C                               l1423 0638  
                             l1415 05F7                               l1271 04EC  
                             l1263 04DD                               l1327 04B4  
                             l1319 04A4                               l1335 04CD  
                             l1239 02E6                               l1407 0358  
                             l1511 0768                               l1503 0751  
                             l1361 0436                               l1353 041E  
                             l1345 040C                               l1257 0353  
                             l1249 033B                               l1193 02A2  
                             l1177 0481                               l1185 02FC  
                             l1433 0692                               l1425 0652  
                             l1417 05FF                               l1281 0500  
                             l1273 04F1                               l1265 04E1  
                             l1337 04D2                               l1329 04BE  
                             l1441 0551                               l1409 035F  
                             l1521 079A                               l1513 0771  
                             l1505 0757                               l1363 043B  
                             l1355 0422                               l1347 0412  
                             l1371 03DC                               l1195 02A3  
                             l1179 0483                               l1187 02FE  
                             l1435 0698                               l1427 066C  
                             l1419 061A                               l1291 0520  
                             l1283 0505                               l1275 04F5  
                             l1267 04E6                               l1339 04D7  
                             l1451 05A9                               l1443 0559  
                             l1531 07B4                               l1523 079D  
                             l1515 0773                               l1507 075B  
                             l1357 0431                               l1349 0415  
                             l1365 0441                               l1381 03F6  
                             l1373 03DF                               l1197 02A9  
                             l1189 0302                               l1437 069E  
                             l1429 0686                               l1293 0521  
                             l1285 0509                               l1277 04F7  
                             l1269 04E8                               l1461 05DA  
                             l1453 05C2                               l1445 0569  
                             l1541 07D4                               l1533 07BD  
                             l1525 07A3                               l1517 077B  
                             l1509 0763                               l1359 0435  
                             l1383 03FA                               l1375 03E4  
                             l1295 0526                               l1287 050D  
                             l1279 04FD                               l1455 05C8  
                             l1447 0577                               l1439 053B  
                             l1391 0297                               l1543 07DD  
                             l1535 07C3                               l1527 07A7  
                             l1519 0797                               l1471 06D5  
                             l1463 06A5                               l1385 03FF  
                             l1377 03E8                               l1369 03D5  
                             l1289 051C                               l1297 052C  
                             l1457 05CE                               l1449 0590  
                             l1393 0299                               l1545 07DF  
                             l1537 07C7                               l1529 07AF  
                             l1481 06F5                               l1473 06DD  
                             l1465 06AB                               l1379 03EC  
                             l1387 0405                               l1299 0531  
                             l1459 05D4                               l1395 029B  
                             l1539 07CF                               l1491 072E  
                             l1483 06FD                               l1475 06E2  
                             l1467 06BA                               l1397 031F  
                             l1493 0731                               l1485 0702  
                             l1477 06EB                               l1469 06D1  
                             l1399 0325                               l1495 0737  
                             l1487 070F                               l1479 06F1  
                             l1497 073B                               l1489 072B  
                             l1499 0743                               u1000 0441  
                             u1001 0440                               u1010 03DC  
                             u1011 03DB                               u1100 06C4  
                             u1030 03EC                               u1110 06EB  
                             u1031 03EB                               u1111 06EA  
                             u1040 03F6                               u1200 0793  
                             u1120 070B                               u1041 03F5  
                             u1025 03E0                               u1121 070A  
                             u1210 07BD                               u1130 070F  
                             u1211 07BC                               u1131 070E  
                             u1060 0405                               u1220 07DD  
                             u1140 0719                               u1061 0404  
                             u1045 03F2                               u1221 07DC  
                             u1070 05F7                               u1150 0727  
                             u1055 03FB                               u1071 05F6  
                             u1080 0551                               u1160 0751  
                             u1081 0550                               u1161 0750  
                             u1170 0771                               u1090 06B6  
                             u1075 05F3                               u1171 0770  
                             u1180 077B                               u1085 054D  
                             u1237 035B                               u1181 077A  
                             u1190 0785                               u1247 0366  
                             u1257 047E                               u1267 0484  
             _lcdCtrl_SetEntryMode 028C             __end_of_dspTaskT_OnLCD 06A5  
           __end_of_dspTaskW_OnLCD 05E1                               _main 06A5  
                             fsr0h 0005                               fsr1h 0007  
                             fsr0l 0004                               indf1 0001  
                             fsr1l 0006                               btemp 007E  
                             start 0002              ??_lcdCtrl_FunctionSet 0077  
                            _ADACQ 009D                              ?_main 0070  
                            _ADCLK 0098                              _ADPCH 009E  
                            _ADREF 009A                    __end_of___awdiv 053B  
                     ?_initSysPins 0070                    __end_of___awmod 04DC  
                  ___awdiv@divisor 0070                    __end_of___lwdiv 0446  
                  __end_of___lwmod 040A                    ___awdiv@counter 0075  
                            _PORTA 000C                   _lcdWriteCtrlWord 02EF  
                            _TRISA 0011                              _TRISB 0012  
                            _TRISC 0013                              _TRISD 0014  
                            _TRISE 0015                       main@message1 0031  
                     main@message2 0042                       main@message3 0061  
                     main@message4 0053                       main@message5 00C7  
                     main@message6 00D4                    __end_of_initADC 029F  
                  __end_of_initLCD 037E                              main@i 006E  
            ?_lcdCtrl_SetEntryMode 0070                    ?_dspTaskT_OnLCD 0070  
                            status 0003                    ?_dspTaskW_OnLCD 0070  
                            wtemp0 007E                    __initialization 07E5  
                     __end_of_main 07E5                   ??_lcdWriteNibble 0070  
                           ??_main 0030                             _ADCON0 0093  
                           _ADRESH 008D                             _ADRESL 008C  
                 ___awdiv@dividend 0072                             _ANSELA 1F38  
                           _ANSELB 1F43                             _ANSELC 1F4E  
                           _ANSELD 1F59                             _ANSELE 1F64  
                           ___wmul 0339                          ??___awdiv 0074  
                        ??___awmod 007D                          ??___lwdiv 007A  
                        ??___lwmod 0024                   ___awdiv@quotient 0077  
                  ___awmod@divisor 0079                    ___awmod@counter 0020  
                        ??_initADC 0070                          ??_initLCD 007B  
           ??_lcdCtrl_SetEntryMode 0077            __end_of__initialization 07FD  
 lcdCtrl_OnOffDisplay@cursor_state 0077                     __pcstackCOMMON 0070  
                     __pidataBANK1 037E                       __pidataBANK2 03A5  
                ??_lcdWriteDspData 0073                   lcdWriteDspData@x 0076  
         __end_of_lcdWriteCtrlWord 0307                         __pmaintext 06A5  
                          ?___wmul 0070                 dspTaskT_OnLCD@dig0 002A  
               dspTaskT_OnLCD@dig1 002B                 dspTaskT_OnLCD@dig2 002C  
               dspTaskT_OnLCD@dig3 002D                 dspTaskT_OnLCD@temp 0028  
                 ??_dspTaskT_OnLCD 0026                   ??_dspTaskW_OnLCD 0022  
      __end_of_lcdCtrl_FunctionSet 028C       __end_of_lcdCtrl_ClearDisplay 0287  
                          ___awdiv 04DC                            ___awmod 0488  
                          ___lwdiv 040A                            ___lwmod 03D5  
            lcdCtrl_SetPos@ramAddr 0079                            __ptext1 031F  
                          __ptext2 0358                            __ptext3 028C  
                          __ptext4 02D8                            __ptext5 0287  
                          __ptext6 0282                            __ptext7 0297  
                          __ptext8 053B                            __ptext9 02C5  
                          _initADC 0297                            _initLCD 0358  
                 ___awmod@dividend 007B               end_of_initialization 07FD  
               dspTaskW_OnLCD@Wlvl 0024                 dspTaskW_OnLCD@dig0 0026  
               dspTaskW_OnLCD@dig1 0027                 dspTaskW_OnLCD@dig2 0028  
               dspTaskW_OnLCD@dig3 0029                            init_ram 0291  
                          initloop 0292                     _lcdCtrl_SetPos 02B2  
                       main@F12170 00BA                         main@F12172 0142  
                       main@F12165 0131                         main@F12167 0120  
                       main@F12175 00AD                         main@F12177 00A0  
         adc_GetTConversion@result 0072                          _PORTBbits 000D  
                        _PORTDbits 000F                          _PORTEbits 0010  
      lcdWriteDspData@lower_nibble 0075       lcdWriteCtrlWord@lower_nibble 0075  
           __end_of_lcdCtrl_SetPos 02C5                    _lcdWriteDspData 0307  
                   __end_of___wmul 0358         __end_of_adc_GetTConversion 02B2  
              start_initialization 07E5               _lcdCtrl_ClearDisplay 0282  
             lcdWriteNibble@nibble 0072                    ?_lcdCtrl_SetPos 0077  
                ?_lcdWriteCtrlWord 0070                 ??_lcdWriteCtrlWord 0073  
                         ??___wmul 0074                        __pdataBANK1 00A0  
                      __pdataBANK2 0120         __end_of_adc_GetWConversion 02D8  
                    ??_initSysPins 0070                          ___latbits 0004  
                    __pcstackBANK0 0020                      __pcstackBANK1 00C7  
            ?_lcdCtrl_ClearDisplay 0070       __end_of_lcdCtrl_OnOffDisplay 02EF  
          __end_of_lcdWriteDspData 031F                   ___lwdiv@dividend 0078  
                         ?___awdiv 0070                           ?___awmod 0079  
                         ?___lwdiv 0076                           ?___lwmod 0020  
                         ?_initADC 0070                           ?_initLCD 0070  
                lcdWriteCtrlWord@x 0076                dspTaskT_OnLCD@count 002E  
              __end_of_initSysPins 0339                   ___lwdiv@quotient 007B  
                   ___wmul@product 0074  lcdCtrl_OnOffDisplay@display_state 0079  
                       _ADCON0bits 0093                          main@i_183 00E1  
                        main@i_188 00E3                  ___wmul@multiplier 0070  
      lcdWriteDspData@upper_nibble 0074             ??_lcdCtrl_ClearDisplay 0077  
     lcdWriteCtrlWord@upper_nibble 0074                     _lcdWriteNibble 0446  
                 ?_lcdWriteDspData 0070        lcdCtrl_OnOffDisplay@pattern 007A  
                      _initSysPins 031F               _lcdCtrl_OnOffDisplay 02D8  
           __end_of_lcdWriteNibble 0488                    ___lwdiv@divisor 0076  
                  ___lwdiv@counter 007D                           __ptext10 0488  
                         __ptext11 04DC                           __ptext20 040A  
                         __ptext12 05E1                           __ptext13 0307  
                         __ptext14 02B2                           __ptext15 02EF  
                         __ptext16 0446                           __ptext17 029F  
                         __ptext18 0339                           __ptext19 03D5  
                lcdCtrl_SetPos@col 0077                  lcdCtrl_SetPos@row 0078  
                 ??_lcdCtrl_SetPos 0078                 _adc_GetTConversion 029F  
              ?_adc_GetTConversion 0070       __end_of_lcdCtrl_SetEntryMode 0291  
            ?_lcdCtrl_OnOffDisplay 0077                dspTaskW_OnLCD@count 002A  
                  ?_lcdWriteNibble 0070               ??_adc_GetTConversion 0072  
               _adc_GetWConversion 02C5                   ___lwmod@dividend 0022  
              ?_adc_GetWConversion 0070               ??_adc_GetWConversion 0072  
                  ___lwmod@divisor 0020                    ___lwmod@counter 0025  
              _lcdCtrl_FunctionSet 0287           adc_GetWConversion@result 0072  
                   _dspTaskT_OnLCD 05E1                     _dspTaskW_OnLCD 053B  
